0x18001db5d c6 44 24 68 77         mov     [rsp+0D08h+var_CA0], 77h ; 'w'
0x180022eaa c6 44 24 69 73         mov     [rsp+0D08h+var_C9F], 73h ; 's'
0x18004f5db c6 44 24 6a 32         mov     [rsp+0D08h+var_C9E], 32h ; '2'
0x180041815 c6 44 24 6b 5f         mov     [rsp+0D08h+var_C9D], 5Fh ; '_'
0x180008bbd c6 44 24 6c 33         mov     [rsp+0D08h+var_C9C], 33h ; '3'
0x180013f47 c6 44 24 6d 32         mov     [rsp+0D08h+var_C9B], 32h ; '2'
0x18003dd95 c6 44 24 6e 2e         mov     [rsp+0D08h+var_C9A], 2Eh ; '.'
0x180005a55 c6 44 24 6f 64         mov     byte ptr [rsp+6Fh], 64h ; 'd'
0x180002bd1 c6 44 24 70 6c         mov     byte ptr [rsp+70h], 6Ch ; 'l'
0x18002926d c6 44 24 71 6c         mov     byte ptr [rsp+71h], 6Ch ; 'l'
0x18004825e c6 44 24 72 00         mov     byte ptr [rsp+72h], 0
0x18000de6c c6 44 24 78 75         mov     byte ptr [rsp+78h], 75h ; 'u'
0x18003ffaa c6 44 24 79 73         mov     byte ptr [rsp+79h], 73h ; 's'
0x18004a7e6 c6 44 24 7a 65         mov     byte ptr [rsp+7Ah], 65h ; 'e'
0x1800286e2 c6 44 24 7b 72         mov     byte ptr [rsp+7Bh], 72h ; 'r'
0x18004f283 c6 44 24 7c 33         mov     byte ptr [rsp+7Ch], 33h ; '3'
0x18001b30a c6 44 24 7d 32         mov     byte ptr [rsp+7Dh], 32h ; '2'
0x1800434ff c6 44 24 7e 2e         mov     byte ptr [rsp+7Eh], 2Eh ; '.'
0x180013216 c6 44 24 7f 64         mov     byte ptr [rsp+7Fh], 64h ; 'd'
0x180058ee3 c6 84 24 80 00 00 00 6c mov     byte ptr [rsp+80h], 6Ch ; 'l'
0x18001ee85 c6 84 24 81 00 00 00 6c mov     byte ptr [rsp+81h], 6Ch ; 'l'
0x18006160d c6 84 24 82 00 00 00 00 mov     byte ptr [rsp+82h], 0
0x180025ff8 c6 44 24 60 43         mov     byte ptr [rsp+60h], 43h ; 'C'
0x18002328e c6 44 24 61 6f         mov     byte ptr [rsp+61h], 6Fh ; 'o'
0x18004b037 c6 44 24 62 6d         mov     byte ptr [rsp+62h], 6Dh ; 'm'
0x18000a4d6 c6 44 24 63 53         mov     byte ptr [rsp+63h], 53h ; 'S'
0x1800364e3 c6 44 24 64 70         mov     byte ptr [rsp+64h], 70h ; 'p'
0x18001c919 c6 44 24 65 65         mov     byte ptr [rsp+65h], 65h ; 'e'
0x180034746 c6 44 24 66 63         mov     byte ptr [rsp+66h], 63h ; 'c'
0x180064959 c6 44 24 67 00         mov     byte ptr [rsp+67h], 0
0x180009a9e c6 84 24 88 00 00 00 53 mov     byte ptr [rsp+88h], 53h ; 'S'
0x180028920 c6 84 24 89 00 00 00 59 mov     byte ptr [rsp+89h], 59h ; 'Y'
0x18001eedb c6 84 24 8a 00 00 00 53 mov     byte ptr [rsp+8Ah], 53h ; 'S'
0x180055d54 c6 84 24 8b 00 00 00 54 mov     byte ptr [rsp+8Bh], 54h ; 'T'
0x180035fb5 c6 84 24 8c 00 00 00 45 mov     byte ptr [rsp+8Ch], 45h ; 'E'
0x180026d85 c6 84 24 8d 00 00 00 4d mov     byte ptr [rsp+8Dh], 4Dh ; 'M'
0x180055c8e c6 84 24 8e 00 00 00 52 mov     byte ptr [rsp+8Eh], 52h ; 'R'
0x18003f71a c6 84 24 8f 00 00 00 4f mov     byte ptr [rsp+8Fh], 4Fh ; 'O'
0x1800143c1 c6 84 24 90 00 00 00 4f mov     byte ptr [rsp+90h], 4Fh ; 'O'
0x1800183f8 c6 84 24 91 00 00 00 54 mov     byte ptr [rsp+91h], 54h ; 'T'
0x18002e0e9 c6 84 24 92 00 00 00 00 mov     byte ptr [rsp+92h], 0
0x180042b87 48 c7 44 24 50 00 00 00 00 mov     qword ptr [rsp+50h], 0
0x180006cd3 c6 84 24 a0 00 00 00 20 mov     byte ptr [rsp+0A0h], 20h ; ' '
0x180004c1e c6 84 24 a1 00 00 00 20 mov     byte ptr [rsp+0A1h], 20h ; ' '
0x180055a7f c6 84 24 a2 00 00 00 20 mov     byte ptr [rsp+0A2h], 20h ; ' '
0x18006348b c6 84 24 a3 00 00 00 20 mov     byte ptr [rsp+0A3h], 20h ; ' '
0x180033367 c6 84 24 a4 00 00 00 20 mov     byte ptr [rsp+0A4h], 20h ; ' '
0x18001823c c6 84 24 a5 00 00 00 20 mov     byte ptr [rsp+0A5h], 20h ; ' '
0x1800631a9 c6 84 24 a6 00 00 00 20 mov     byte ptr [rsp+0A6h], 20h ; ' '
0x18002162d c6 84 24 a7 00 00 00 20 mov     byte ptr [rsp+0A7h], 20h ; ' '
0x180029d4e c6 84 24 a8 00 00 00 20 mov     byte ptr [rsp+0A8h], 20h ; ' '
0x18004bbdd c6 84 24 a9 00 00 00 20 mov     byte ptr [rsp+0A9h], 20h ; ' '
0x18002b21a c6 84 24 aa 00 00 00 20 mov     byte ptr [rsp+0AAh], 20h ; ' '
0x180020a8c c6 84 24 ab 00 00 00 20 mov     byte ptr [rsp+0ABh], 20h ; ' '
0x180031153 c6 84 24 ac 00 00 00 20 mov     byte ptr [rsp+0ACh], 20h ; ' '
0x1800235b3 c6 84 24 ad 00 00 00 20 mov     byte ptr [rsp+0ADh], 20h ; ' '
0x18004b513 c6 84 24 ae 00 00 00 20 mov     byte ptr [rsp+0AEh], 20h ; ' '
0x180003d19 c6 84 24 af 00 00 00 20 mov     byte ptr [rsp+0AFh], 20h ; ' '
0x18005047d c6 84 24 b0 00 00 00 20 mov     byte ptr [rsp+0B0h], 20h ; ' '
0x18003f85c c6 84 24 b1 00 00 00 20 mov     byte ptr [rsp+0B1h], 20h ; ' '
0x18004f7c0 c6 84 24 b2 00 00 00 20 mov     [rsp+arg_AA], 20h ; ' '
0x1800529ae c6 84 24 b3 00 00 00 5f mov     [rsp+arg_AB], 5Fh ; '_'
0x180024bdb c6 84 24 b4 00 00 00 5f mov     [rsp+arg_AC], 5Fh ; '_'
0x18000cb2f c6 84 24 b5 00 00 00 5f mov     [rsp+arg_AD], 5Fh ; '_'
0x180008b90 c6 84 24 b6 00 00 00 5f mov     [rsp+arg_AE], 5Fh ; '_'
0x1800246ca c6 84 24 b7 00 00 00 20 mov     [rsp+arg_AF], 20h ; ' '
0x180064f7c c6 84 24 b8 00 00 00 20 mov     [rsp+arg_A8], 20h ; ' '
0x18000d74f c6 84 24 b9 00 00 00 20 mov     [rsp+arg_B1], 20h ; ' '
0x18000d563 c6 84 24 ba 00 00 00 20 mov     [rsp+arg_B2], 20h ; ' '
0x18000e9fd c6 84 24 bb 00 00 00 20 mov     [rsp+arg_B3], 20h ; ' '
0x180045b42 c6 84 24 bc 00 00 00 20 mov     [rsp+arg_B4], 20h ; ' '
0x18001cfc3 c6 84 24 bd 00 00 00 20 mov     [rsp+arg_B5], 20h ; ' '
0x18004a47d c6 84 24 be 00 00 00 20 mov     [rsp+arg_B6], 20h ; ' '
0x18001a146 c6 84 24 bf 00 00 00 20 mov     [rsp+arg_B7], 20h ; ' '
0x18002de00 c6 84 24 c0 00 00 00 20 mov     [rsp+arg_B8], 20h ; ' '
0x180024e42 c6 84 24 c1 00 00 00 20 mov     [rsp+arg_B9], 20h ; ' '
0x18001b781 c6 84 24 c2 00 00 00 20 mov     [rsp+arg_BA], 20h ; ' '
0x180015675 c6 84 24 c3 00 00 00 20 mov     [rsp+arg_BB], 20h ; ' '
0x18004367c c6 84 24 c4 00 00 00 20 mov     [rsp+arg_BC], 20h ; ' '
0x180063071 c6 84 24 c5 00 00 00 20 mov     byte ptr [rsp+0C5h], 20h ; ' '
0x1800110c3 c6 84 24 c6 00 00 00 20 mov     [rsp+arg_BE], 20h ; ' '
0x180040b58 c6 84 24 c7 00 00 00 20 mov     [rsp+arg_BF], 20h ; ' '
0x1800656ba c6 84 24 c8 00 00 00 20 mov     byte ptr [rsp+0C8h], 20h ; ' '
0x18002d339 c6 84 24 c9 00 00 00 0d mov     [rsp+arg_C1], 0Dh
0x18001b70d c6 84 24 ca 00 00 00 0a mov     [rsp+arg_C2], 0Ah
0x18003da57 c6 84 24 cb 00 00 00 20 mov     [rsp+arg_C3], 20h ; ' '
0x180009dd0 c6 84 24 cc 00 00 00 20 mov     [rsp+arg_C4], 20h ; ' '
0x18001506e c6 84 24 cd 00 00 00 20 mov     [rsp+arg_C5], 20h ; ' '
0x18005fbe1 c6 84 24 ce 00 00 00 20 mov     byte ptr [rsp+0CEh], 20h ; ' '
0x18002749d c6 84 24 cf 00 00 00 20 mov     [rsp+arg_C7], 20h ; ' '
0x1800641e8 c6 84 24 d0 00 00 00 20 mov     [rsp+arg_C0], 20h ; ' '
0x18004f4e0 c6 84 24 d1 00 00 00 20 mov     [rsp+arg_C9], 20h ; ' '
0x18004cd9b c6 84 24 d2 00 00 00 20 mov     [rsp+arg_CA], 20h ; ' '
0x18002bb82 c6 84 24 d3 00 00 00 20 mov     [rsp+arg_CB], 20h ; ' '
0x18000ebf8 c6 84 24 d4 00 00 00 20 mov     [rsp+arg_CC], 20h ; ' '
0x18003697d c6 84 24 d5 00 00 00 20 mov     [rsp+arg_CD], 20h ; ' '
0x1800098dd c6 84 24 d6 00 00 00 20 mov     [rsp+arg_CE], 20h ; ' '
0x18003ad43 c6 84 24 d7 00 00 00 20 mov     [rsp+arg_CF], 20h ; ' '
0x1800506bd c6 84 24 d8 00 00 00 20 mov     [rsp+arg_D0], 20h ; ' '
0x180017e34 c6 84 24 d9 00 00 00 20 mov     [rsp+arg_D1], 20h ; ' '
0x180007bf5 c6 84 24 da 00 00 00 20 mov     [rsp+arg_D2], 20h ; ' '
0x18000d16e c6 84 24 db 00 00 00 5f mov     [rsp+arg_D3], 5Fh ; '_'
0x1800409e2 c6 84 24 dc 00 00 00 2e mov     [rsp+arg_D4], 2Eh ; '.'
0x18004d4ca c6 84 24 dd 00 00 00 27 mov     [rsp+arg_D5], 27h ; '''
0x18003d5ae c6 84 24 de 00 00 00 20 mov     [rsp+arg_D6], 20h ; ' '
0x1800421f3 c6 84 24 df 00 00 00 3a mov     [rsp+arg_D7], 3Ah ; ':'
0x180059d6a c6 84 24 e0 00 00 00 20 mov     byte ptr [rsp+0E0h], 20h ; ' '
0x180031ca4 c6 84 24 e1 00 00 00 20 mov     [rsp+arg_D9], 20h ; ' '
0x180013232 c6 84 24 e2 00 00 00 60 mov     [rsp+arg_DA], 60h ; '`'
0x180036602 c6 84 24 e3 00 00 00 2e mov     [rsp+arg_DB], 2Eh ; '.'
0x180062e2a c6 84 24 e4 00 00 00 5f mov     byte ptr [rsp+0E4h], 5Fh ; '_'
0x18000b7a5 c6 84 24 e5 00 00 00 20 mov     [rsp+arg_DD], 20h ; ' '
0x180034983 c6 84 24 e6 00 00 00 20 mov     [rsp+arg_DE], 20h ; ' '
0x18002e6a9 c6 84 24 e7 00 00 00 20 mov     [rsp+arg_DF], 20h ; ' '
0x180019911 c6 84 24 e8 00 00 00 20 mov     [rsp+arg_E0], 20h ; ' '
0x18001e894 c6 84 24 e9 00 00 00 20 mov     [rsp+arg_E1], 20h ; ' '
0x180044658 c6 84 24 ea 00 00 00 20 mov     [rsp+arg_E2], 20h ; ' '
0x180049e4d c6 84 24 eb 00 00 00 20 mov     [rsp+arg_E3], 20h ; ' '
0x1800191ae c6 84 24 ec 00 00 00 20 mov     [rsp+arg_E4], 20h ; ' '
0x18005769a c6 84 24 ed 00 00 00 20 mov     [rsp+arg_E5], 20h ; ' '
0x180004540 c6 84 24 ee 00 00 00 20 mov     byte ptr [rsp+0EEh], 20h ; ' '
0x180003343 c6 84 24 ef 00 00 00 20 mov     byte ptr [rsp+0EFh], 20h ; ' '
0x180045650 c6 84 24 f0 00 00 00 20 mov     byte ptr [rsp+0F0h], 20h ; ' '
0x180018ee8 c6 84 24 f1 00 00 00 20 mov     byte ptr [rsp+0F1h], 20h ; ' '
0x180036919 c6 84 24 f2 00 00 00 20 mov     byte ptr [rsp+0F2h], 20h ; ' '
0x180046336 c6 84 24 f3 00 00 00 20 mov     byte ptr [rsp+0F3h], 20h ; ' '
0x1800071dd c6 84 24 f4 00 00 00 0d mov     byte ptr [rsp+0F4h], 0Dh
0x18003503f c6 84 24 f5 00 00 00 0a mov     byte ptr [rsp+0F5h], 0Ah
0x180026a05 c6 84 24 f6 00 00 00 20 mov     byte ptr [rsp+0F6h], 20h ; ' '
0x1800270b5 c6 84 24 f7 00 00 00 20 mov     byte ptr [rsp+0F7h], 20h ; ' '
0x180006deb c6 84 24 f8 00 00 00 20 mov     byte ptr [rsp+0F8h], 20h ; ' '
0x18005ec6b c6 84 24 f9 00 00 00 20 mov     byte ptr [rsp+0F9h], 20h ; ' '
0x180008bf4 c6 84 24 fa 00 00 00 20 mov     byte ptr [rsp+0FAh], 20h ; ' '
0x18003579d c6 84 24 fb 00 00 00 20 mov     byte ptr [rsp+0FBh], 20h ; ' '
0x180018657 c6 84 24 fc 00 00 00 20 mov     byte ptr [rsp+0FCh], 20h ; ' '
0x180053db6 c6 84 24 fd 00 00 00 20 mov     byte ptr [rsp+0FDh], 20h ; ' '
0x1800615a6 c6 84 24 fe 00 00 00 20 mov     [rsp+28h+arg_C6], 20h ; ' '
0x180050165 c6 84 24 ff 00 00 00 20 mov     [rsp+28h+arg_C7], 20h ; ' '
0x18004c85c c6 84 24 00 01 00 00 20 mov     [rsp+28h+arg_C8], 20h ; ' '
0x180054f90 c6 84 24 01 01 00 00 20 mov     [rsp+28h+arg_C9], 20h ; ' '
0x180042d91 c6 84 24 02 01 00 00 2e mov     [rsp+28h+arg_CA], 2Eh ; '.'
0x1800651c8 c6 84 24 03 01 00 00 2d mov     [rsp+28h+arg_CB], 2Dh ; '-'
0x18001a300 c6 84 24 04 01 00 00 2e mov     [rsp+28h+arg_CC], 2Eh ; '.'
0x18005512a c6 84 24 05 01 00 00 27 mov     [rsp+28h+arg_CD], 27h ; '''
0x180011efc c6 84 24 06 01 00 00 60 mov     [rsp+28h+arg_CE], 60h ; '`'
0x180005bb8 c6 84 24 07 01 00 00 2e mov     byte ptr [rsp+107h], 2Eh ; '.'
0x180050b97 c6 84 24 08 01 00 00 20 mov     byte ptr [rsp+108h], 20h ; ' '
0x180014196 c6 84 24 09 01 00 00 20 mov     byte ptr [rsp+109h], 20h ; ' '
0x18000fdc9 c6 84 24 0a 01 00 00 3b mov     byte ptr [rsp+10Ah], 3Bh ; ';'
0x180062e59 c6 84 24 0b 01 00 00 20 mov     byte ptr [rsp+10Bh], 20h ; ' '
0x180005b78 c6 84 24 0c 01 00 00 20 mov     byte ptr [rsp+10Ch], 20h ; ' '
0x1800612b2 c6 84 24 0d 01 00 00 20 mov     byte ptr [rsp+10Dh], 20h ; ' '
0x180019a56 c6 84 24 0e 01 00 00 2e mov     byte ptr [rsp+10Eh], 2Eh ; '.'
0x180023872 c6 84 24 0f 01 00 00 27 mov     byte ptr [rsp+10Fh], 27h ; '''
0x1800244fe c6 84 24 10 01 00 00 60 mov     byte ptr [rsp+110h], 60h ; '`'
0x18000c595 c6 84 24 11 01 00 00 2e mov     byte ptr [rsp+111h], 2Eh ; '.'
0x18000a478 c6 84 24 12 01 00 00 2d mov     byte ptr [rsp+112h], 2Dh ; '-'
0x180001bbe c6 84 24 13 01 00 00 2e mov     byte ptr [rsp+113h], 2Eh ; '.'
0x18005a795 c6 84 24 14 01 00 00 20 mov     byte ptr [rsp+114h], 20h ; ' '
0x180025487 c6 84 24 15 01 00 00 20 mov     [rsp+18h+arg_F5], 20h ; ' '
0x1800632d6 c6 84 24 16 01 00 00 20 mov     [rsp+18h+arg_F6], 20h ; ' '
0x1800055f9 c6 84 24 17 01 00 00 20 mov     byte ptr [rsp+117h], 20h ; ' '
0x180005dbc c6 84 24 18 01 00 00 20 mov     byte ptr [rsp+118h], 20h ; ' '
0x18000daad c6 84 24 19 01 00 00 20 mov     byte ptr [rsp+119h], 20h ; ' '
0x1800260e1 c6 84 24 1a 01 00 00 20 mov     byte ptr [rsp+11Ah], 20h ; ' '
0x18001a3ac c6 84 24 1b 01 00 00 20 mov     byte ptr [rsp+11Bh], 20h ; ' '
0x180038c56 c6 84 24 1c 01 00 00 20 mov     byte ptr [rsp+11Ch], 20h ; ' '
0x180018eab c6 84 24 1d 01 00 00 20 mov     byte ptr [rsp+11Dh], 20h ; ' '
0x180062274 c6 84 24 1e 01 00 00 20 mov     byte ptr [rsp+11Eh], 20h ; ' '
0x180013e54 c6 84 24 1f 01 00 00 0d mov     byte ptr [rsp+11Fh], 0Dh
0x18004de47 c6 84 24 20 01 00 00 0a mov     byte ptr [rsp+120h], 0Ah
0x180050276 c6 84 24 21 01 00 00 20 mov     byte ptr [rsp+121h], 20h ; ' '
0x1800384db c6 84 24 22 01 00 00 20 mov     byte ptr [rsp+122h], 20h ; ' '
0x180041edb c6 84 24 23 01 00 00 20 mov     byte ptr [rsp+123h], 20h ; ' '
0x180004d34 c6 84 24 24 01 00 00 5f mov     byte ptr [rsp+124h], 5Fh ; '_'
0x18003ce96 c6 84 24 25 01 00 00 5f mov     byte ptr [rsp+125h], 5Fh ; '_'
0x18004b979 c6 84 24 26 01 00 00 20 mov     byte ptr [rsp+126h], 20h ; ' '
0x18001ad42 c6 84 24 27 01 00 00 20 mov     byte ptr [rsp+127h], 20h ; ' '
0x18000945f c6 84 24 28 01 00 00 20 mov     byte ptr [rsp+128h], 20h ; ' '
0x18004c7c2 c6 84 24 29 01 00 00 20 mov     byte ptr [rsp+129h], 20h ; ' '
0x18000dfbe c6 84 24 2a 01 00 00 20 mov     byte ptr [rsp+12Ah], 20h ; ' '
0x1800487be c6 84 24 2b 01 00 00 20 mov     byte ptr [rsp+12Bh], 20h ; ' '
0x180015468 c6 84 24 2c 01 00 00 2f mov     byte ptr [rsp+12Ch], 2Fh ; '/'
0x180054d94 c6 84 24 2d 01 00 00 20 mov     byte ptr [rsp+12Dh], 20h ; ' '
0x1800027c8 c6 84 24 2e 01 00 00 3a mov     byte ptr [rsp+12Eh], 3Ah ; ':'
0x1800360da c6 84 24 2f 01 00 00 20 mov     byte ptr [rsp+12Fh], 20h ; ' '
0x18003344f c6 84 24 30 01 00 00 5f mov     byte ptr [rsp+130h], 5Fh ; '_'
0x18000f7a7 c6 84 24 31 01 00 00 5f mov     byte ptr [rsp+131h], 5Fh ; '_'
0x18001080e c6 84 24 32 01 00 00 5f mov     byte ptr [rsp+132h], 5Fh ; '_'
0x180022d5e c6 84 24 33 01 00 00 5c mov     byte ptr [rsp+133h], 5Ch ; '\'
0x180025115 c6 84 24 34 01 00 00 20 mov     byte ptr [rsp+134h], 20h ; ' '
0x180039fe8 c6 84 24 35 01 00 00 3b mov     byte ptr [rsp+135h], 3Bh ; ';'
0x180002f78 c6 84 24 36 01 00 00 20 mov     byte ptr [rsp+136h], 20h ; ' '
0x180006168 c6 84 24 37 01 00 00 20 mov     byte ptr [rsp+137h], 20h ; ' '
0x18003d2d0 c6 84 24 38 01 00 00 2f mov     byte ptr [rsp+138h], 2Fh ; '/'
0x18000d108 c6 84 24 39 01 00 00 5f mov     byte ptr [rsp+139h], 5Fh ; '_'
0x1800255ae c6 84 24 3a 01 00 00 5f mov     byte ptr [rsp+13Ah], 5Fh ; '_'
0x18001bf04 c6 84 24 3b 01 00 00 5f mov     byte ptr [rsp+13Bh], 5Fh ; '_'
0x1800217ac c6 84 24 3c 01 00 00 20 mov     byte ptr [rsp+13Ch], 20h ; ' '
0x180060212 c6 84 24 3d 01 00 00 3b mov     byte ptr [rsp+13Dh], 3Bh ; ';'
0x18005d907 c6 84 24 3e 01 00 00 20 mov     byte ptr [rsp+13Eh], 20h ; ' '
0x180013136 c6 84 24 3f 01 00 00 5c mov     byte ptr [rsp+13Fh], 5Ch ; '\'
0x180036535 c6 84 24 40 01 00 00 20 mov     byte ptr [rsp+140h], 20h ; ' '
0x18003db5f c6 84 24 41 01 00 00 20 mov     byte ptr [rsp+141h], 20h ; ' '
0x1800554fa c6 84 24 42 01 00 00 20 mov     byte ptr [rsp+142h], 20h ; ' '
0x18001bcc2 c6 84 24 43 01 00 00 20 mov     byte ptr [rsp+143h], 20h ; ' '
0x18002b9d0 c6 84 24 44 01 00 00 20 mov     byte ptr [rsp+144h], 20h ; ' '
0x180057774 c6 84 24 45 01 00 00 20 mov     byte ptr [rsp+145h], 20h ; ' '
0x18000878a c6 84 24 46 01 00 00 5f mov     byte ptr [rsp+146h], 5Fh ; '_'
0x180031b3e c6 84 24 47 01 00 00 5f mov     byte ptr [rsp+147h], 5Fh ; '_'
0x180030e86 c6 84 24 48 01 00 00 20 mov     byte ptr [rsp+148h], 20h ; ' '
0x180015a34 c6 84 24 49 01 00 00 20 mov     byte ptr [rsp+149h], 20h ; ' '
0x18005fc93 c6 84 24 4a 01 00 00 0d mov     byte ptr [rsp+14Ah], 0Dh
0x18002c07f c6 84 24 4b 01 00 00 0a mov     byte ptr [rsp+14Bh], 0Ah
0x180015ee3 c6 84 24 4c 01 00 00 20 mov     byte ptr [rsp+14Ch], 20h ; ' '
0x180003899 c6 84 24 4d 01 00 00 2c mov     byte ptr [rsp+14Dh], 2Ch ; ','
0x180024e9d c6 84 24 4e 01 00 00 27 mov     byte ptr [rsp+14Eh], 27h ; '''
0x18005aa17 c6 84 24 4f 01 00 00 5f mov     byte ptr [rsp+14Fh], 5Fh ; '_'
0x180054ac9 c6 84 24 50 01 00 00 20 mov     byte ptr [rsp+150h], 20h ; ' '
0x18000f3de c6 84 24 51 01 00 00 22 mov     byte ptr [rsp+151h], 22h ; '"'
0x180032f6e c6 84 24 52 01 00 00 22 mov     byte ptr [rsp+152h], 22h ; '"'
0x18004d84c c6 84 24 53 01 00 00 2d mov     byte ptr [rsp+153h], 2Dh ; '-'
0x180043957 c6 84 24 54 01 00 00 2d mov     byte ptr [rsp+154h], 2Dh ; '-'
0x18005bb82 c6 84 24 55 01 00 00 2e mov     byte ptr [rsp+155h], 2Eh ; '.'
0x180034b18 c6 84 24 56 01 00 00 3a mov     byte ptr [rsp+156h], 3Ah ; ':'
0x18000edc8 c6 84 24 57 01 00 00 5f mov     byte ptr [rsp+157h], 5Fh ; '_'
0x18005c488 c6 84 24 58 01 00 00 5f mov     byte ptr [rsp+158h], 5Fh ; '_'
0x1800369b7 c6 84 24 59 01 00 00 3b mov     byte ptr [rsp+159h], 3Bh ; ';'
0x1800348e7 c6 84 24 5a 01 00 00 22 mov     byte ptr [rsp+15Ah], 22h ; '"'
0x1800331b2 c6 84 24 5b 01 00 00 2e mov     byte ptr [rsp+15Bh], 2Eh ; '.'
0x180041dc3 c6 84 24 5c 01 00 00 2d mov     byte ptr [rsp+15Ch], 2Dh ; '-'
0x1800079ca c6 84 24 5d 01 00 00 2e mov     byte ptr [rsp+15Dh], 2Eh ; '.'
0x180038afe c6 84 24 5e 01 00 00 22 mov     byte ptr [rsp+15Eh], 22h ; '"'
0x180047c90 c6 84 24 5f 01 00 00 3b mov     byte ptr [rsp+15Fh], 3Bh ; ';'
0x180007dd4 c6 84 24 60 01 00 00 3a mov     byte ptr [rsp+160h], 3Ah ; ':'
0x18003b128 c6 84 24 61 01 00 00 20 mov     byte ptr [rsp+161h], 20h ; ' '
0x18000fbf2 c6 84 24 62 01 00 00 3a mov     byte ptr [rsp+162h], 3Ah ; ':'
0x18005394b c6 84 24 63 01 00 00 22 mov     byte ptr [rsp+163h], 22h ; '"'
0x180021a7f c6 84 24 64 01 00 00 2e mov     byte ptr [rsp+164h], 2Eh ; '.'
0x18005def8 c6 84 24 65 01 00 00 2d mov     byte ptr [rsp+165h], 2Dh ; '-'
0x180015ed6 c6 84 24 66 01 00 00 2e mov     byte ptr [rsp+166h], 2Eh ; '.'
0x1800020c6 c6 84 24 67 01 00 00 22 mov     byte ptr [rsp+167h], 22h ; '"'
0x18004fe3f c6 84 24 68 01 00 00 3a mov     byte ptr [rsp+168h], 3Ah ; ':'
0x18005b620 c6 84 24 69 01 00 00 5f mov     byte ptr [rsp+169h], 5Fh ; '_'
0x18002414a c6 84 24 6a 01 00 00 5f mov     byte ptr [rsp+16Ah], 5Fh ; '_'
0x18002d4ab c6 84 24 6b 01 00 00 3b mov     byte ptr [rsp+16Bh], 3Bh ; ';'
0x180020917 c6 84 24 6c 01 00 00 2e mov     byte ptr [rsp+16Ch], 2Eh ; '.'
0x18001ebf6 c6 84 24 6d 01 00 00 2d mov     byte ptr [rsp+16Dh], 2Dh ; '-'
0x18004ff4d c6 84 24 6e 01 00 00 2d mov     byte ptr [rsp+16Eh], 2Dh ; '-'
0x180020cb6 c6 84 24 6f 01 00 00 22 mov     byte ptr [rsp+16Fh], 22h ; '"'
0x180028bf7 c6 84 24 70 01 00 00 22 mov     byte ptr [rsp+170h], 22h ; '"'
0x180051c5a c6 84 24 71 01 00 00 20 mov     byte ptr [rsp+171h], 20h ; ' '
0x18002c056 c6 84 24 72 01 00 00 5f mov     byte ptr [rsp+172h], 5Fh ; '_'
0x180057fc5 c6 84 24 73 01 00 00 60 mov     byte ptr [rsp+173h], 60h ; '`'
0x18000b5c2 c6 84 24 74 01 00 00 2c mov     byte ptr [rsp+174h], 2Ch ; ','
0x180029536 c6 84 24 75 01 00 00 0d mov     [rsp+8+arg_165], 0Dh
0x1800512d0 c6 84 24 76 01 00 00 0a mov     [rsp+8+arg_15E], 0Ah
0x18001092d c6 84 24 77 01 00 00 20 mov     [rsp+8+arg_15F], 20h ; ' '
0x180040f70 c6 84 24 78 01 00 00 3a mov     [rsp+8+arg_160], 3Ah ; ':'
0x1800337c0 c6 84 24 79 01 00 00 27 mov     [rsp+8+arg_161], 27h ; '''
0x18004a2b8 c6 84 24 7a 01 00 00 20 mov     [rsp+8+arg_162], 20h ; ' '
0x18003c44d c6 84 24 7b 01 00 00 60 mov     [rsp+8+arg_163], 60h ; '`'
0x18004dfd0 c6 84 24 7c 01 00 00 2e mov     [rsp+8+arg_164], 2Eh ; '.'
0x180028b77 c6 84 24 7d 01 00 00 74 mov     [rsp+arg_175], 74h ; 't'
0x18005b559 c6 84 24 7e 01 00 00 22 mov     [rsp+arg_16E], 22h ; '"'
0x1800188a5 c6 84 24 7f 01 00 00 22 mov     [rsp+arg_177], 22h ; '"'
0x18005c9dd c6 84 24 80 01 00 00 2d mov     [rsp+arg_170], 2Dh ; '-'
0x180056fc0 c6 84 24 81 01 00 00 2d mov     [rsp+arg_171], 2Dh ; '-'
0x18005e788 c6 84 24 82 01 00 00 2e mov     [rsp+arg_172], 2Eh ; '.'
0x180043aa6 c6 84 24 83 01 00 00 2e mov     [rsp+arg_17B], 2Eh ; '.'
0x180037b0f c6 84 24 84 01 00 00 20 mov     [rsp+arg_17C], 20h ; ' '
0x18003f622 c6 84 24 85 01 00 00 27 mov     [rsp+arg_17D], 27h ; '''
0x180020e91 c6 84 24 86 01 00 00 3c mov     [rsp+arg_17E], 3Ch ; '<'
0x1800296c4 c6 84 24 87 01 00 00 40 mov     [rsp+arg_17F], 40h ; '@'
0x1800496ad c6 84 24 88 01 00 00 2e mov     [rsp+arg_180], 2Eh ; '.'
0x180004438 c6 84 24 89 01 00 00 60 mov     byte ptr [rsp+189h], 60h ; '`'
0x180043259 c6 84 24 8a 01 00 00 3b mov     byte ptr [rsp+18Ah], 3Bh ; ';'
0x18001c7ae c6 84 24 8b 01 00 00 5f mov     byte ptr [rsp+18Bh], 5Fh ; '_'
0x18000d52b c6 84 24 8c 01 00 00 20 mov     byte ptr [rsp+18Ch], 20h ; ' '
0x18004ac40 c6 84 24 8d 01 00 00 20 mov     byte ptr [rsp+18Dh], 20h ; ' '
0x18003d2a4 c6 84 24 8e 01 00 00 27 mov     byte ptr [rsp+18Eh], 27h ; '''
0x180045a5d c6 84 24 8f 01 00 00 2c mov     byte ptr [rsp+18Fh], 2Ch ; ','
0x180047911 c6 84 24 90 01 00 00 40 mov     byte ptr [rsp+190h], 40h ; '@'
0x180020770 c6 84 24 91 01 00 00 3e mov     byte ptr [rsp+191h], 3Eh ; '>'
0x18002cf3a c6 84 24 92 01 00 00 60 mov     byte ptr [rsp+192h], 60h ; '`'
0x1800444e6 c6 84 24 93 01 00 00 20 mov     byte ptr [rsp+193h], 20h ; ' '
0x18002e9f0 c6 84 24 94 01 00 00 2e mov     byte ptr [rsp+194h], 2Eh ; '.'
0x1800063af c6 84 24 95 01 00 00 2e mov     byte ptr [rsp+195h], 2Eh ; '.'
0x18004b534 c6 84 24 96 01 00 00 2d mov     byte ptr [rsp+196h], 2Dh ; '-'
0x180018d16 c6 84 24 97 01 00 00 2d mov     byte ptr [rsp+197h], 2Dh ; '-'
0x180044b83 c6 84 24 98 01 00 00 22 mov     byte ptr [rsp+198h], 22h ; '"'
0x18005cc8e c6 84 24 99 01 00 00 22 mov     byte ptr [rsp+199h], 22h ; '"'
0x180003ae3 c6 84 24 9a 01 00 00 6a mov     byte ptr [rsp+19Ah], 6Ah ; 'j'
0x1800108a5 c6 84 24 9b 01 00 00 2e mov     byte ptr [rsp+19Bh], 2Eh ; '.'
0x18003b84e c6 84 24 9c 01 00 00 27 mov     byte ptr [rsp+19Ch], 27h ; '''
0x180064515 c6 84 24 9d 01 00 00 20 mov     byte ptr [rsp+19Dh], 20h ; ' '
0x18000d3fd c6 84 24 9e 01 00 00 60 mov     byte ptr [rsp+19Eh], 60h ; '`'
0x180029607 c6 84 24 9f 01 00 00 3b mov     byte ptr [rsp+19Fh], 3Bh ; ';'
0x18003747f c6 84 24 a0 01 00 00 0d mov     byte ptr [rsp+1A0h], 0Dh
0x18001e85c c6 84 24 a1 01 00 00 0a mov     byte ptr [rsp+1A1h], 0Ah
0x1800022f9 c6 84 24 a2 01 00 00 20 mov     byte ptr [rsp+1A2h], 20h ; ' '
0x180059921 c6 84 24 a3 01 00 00 20 mov     byte ptr [rsp+1A3h], 20h ; ' '
0x18000f415 c6 84 24 a4 01 00 00 20 mov     byte ptr [rsp+1A4h], 20h ; ' '
0x180060a4f c6 84 24 a5 01 00 00 20 mov     [rsp+0C0h+arg_CD], 20h ; ' '
0x18002cb79 c6 84 24 a6 01 00 00 20 mov     [rsp+0C0h+arg_CE], 20h ; ' '
0x180024477 c6 84 24 a7 01 00 00 20 mov     [rsp+0C0h+arg_CF], 20h ; ' '
0x18002aa6e c6 84 24 a8 01 00 00 60 mov     [rsp+0C0h+arg_D0], 60h ; '`'
0x180046445 c6 84 24 a9 01 00 00 3a mov     [rsp+0C0h+arg_D1], 3Ah ; ':'
0x18003470d c6 84 24 aa 01 00 00 2d mov     [rsp+0C0h+arg_D2], 2Dh ; '-'
0x1800165dd c6 84 24 ab 01 00 00 2e mov     [rsp+0C0h+arg_D3], 2Eh ; '.'
0x18002859d c6 84 24 ac 01 00 00 2e mov     [rsp+0C0h+arg_D4], 2Eh ; '.'
0x18001daad c6 84 24 ad 01 00 00 5f mov     [rsp+0C0h+arg_D5], 5Fh ; '_'
0x18000d7f7 c6 84 24 ae 01 00 00 4a mov     [rsp+0C0h+arg_D6], 4Ah ; 'J'
0x180015ffe c6 84 24 af 01 00 00 20 mov     [rsp+0C0h+arg_D7], 20h ; ' '
0x18003f0f9 c6 84 24 b0 01 00 00 27 mov     [rsp+0C0h+arg_D8], 27h ; '''
0x180050ef6 c6 84 24 b1 01 00 00 2d mov     [rsp+0C0h+arg_D9], 2Dh ; '-'
0x1800597ef c6 84 24 b2 01 00 00 2e mov     [rsp+0C0h+arg_DA], 2Eh ; '.'
0x180023277 c6 84 24 b3 01 00 00 2d mov     [rsp+0C0h+arg_DB], 2Dh ; '-'
0x180038128 c6 84 24 b4 01 00 00 27 mov     [rsp+0C0h+arg_DC], 27h ; '''
0x180030228 c6 84 24 b5 01 00 00 4c mov     [rsp+0C0h+arg_DD], 4Ch ; 'L'
0x180055013 c6 84 24 b6 01 00 00 5f mov     [rsp+0C0h+arg_DE], 5Fh ; '_'
0x18002d914 c6 84 24 b7 01 00 00 5f mov     [rsp+0C0h+arg_DF], 5Fh ; '_'
0x1800569c7 c6 84 24 b8 01 00 00 20 mov     [rsp+0C0h+arg_E0], 20h ; ' '
0x18001ffdb c6 84 24 b9 01 00 00 60 mov     [rsp+0C0h+arg_E1], 60h ; '`'
0x1800205d6 c6 84 24 ba 01 00 00 2d mov     [rsp+0C0h+arg_E2], 2Dh ; '-'
0x18005d287 c6 84 24 bb 01 00 00 2d mov     [rsp+0C0h+arg_E3], 2Dh ; '-'
0x1800462de c6 84 24 bc 01 00 00 20 mov     [rsp+0C0h+arg_E4], 20h ; ' '
0x18003b8cc c6 84 24 bd 01 00 00 27 mov     [rsp+0C0h+arg_E5], 27h ; '''
0x18001adc1 c6 84 24 be 01 00 00 20 mov     [rsp+0C0h+arg_E6], 20h ; ' '
0x180043ddb c6 84 24 bf 01 00 00 4c mov     [rsp+0C0h+arg_E7], 4Ch ; 'L'
0x18004ff8e c6 84 24 c0 01 00 00 5f mov     [rsp+0C0h+arg_E8], 5Fh ; '_'
0x1800658aa c6 84 24 c1 01 00 00 2e mov     [rsp+0C0h+arg_E9], 2Eh ; '.'
0x18005cda8 c6 84 24 c2 01 00 00 2e mov     [rsp+0C0h+arg_EA], 2Eh ; '.'
0x180061b09 c6 84 24 c3 01 00 00 2d mov     [rsp+0C0h+arg_EB], 2Dh ; '-'
0x180038770 c6 84 24 c4 01 00 00 3b mov     [rsp+0C0h+arg_EC], 3Bh ; ';'
0x18003a2bf c6 84 24 c5 01 00 00 27 mov     [rsp+0C0h+arg_ED], 27h ; '''
0x18003cba0 c6 84 24 c6 01 00 00 20 mov     [rsp+0C0h+arg_EE], 20h ; ' '
0x180056e8e c6 84 24 c7 01 00 00 20 mov     [rsp+0C0h+arg_EF], 20h ; ' '
0x18003fe6d c6 84 24 c8 01 00 00 20 mov     [rsp+0C0h+arg_F0], 20h ; ' '
0x180005c30 c6 84 24 c9 01 00 00 20 mov     [rsp+0C0h+arg_F1], 20h ; ' '
0x180033640 c6 84 24 ca 01 00 00 20 mov     [rsp+0C0h+arg_F2], 20h ; ' '
0x18005ba5f c6 84 24 cb 01 00 00 0d mov     [rsp+0C0h+arg_F3], 0Dh
0x180009608 c6 84 24 cc 01 00 00 0a mov     [rsp+0C0h+arg_F4], 0Ah
0x18001a8d4 c6 84 24 cd 01 00 00 20 mov     [rsp+0C0h+arg_F5], 20h ; ' '
0x180063527 c6 84 24 ce 01 00 00 20 mov     [rsp+0C0h+arg_F6], 20h ; ' '
0x18000e9c7 c6 84 24 cf 01 00 00 20 mov     [rsp+0C0h+arg_F7], 20h ; ' '
0x180025e23 c6 84 24 d0 01 00 00 20 mov     [rsp+0C0h+arg_F8], 20h ; ' '
0x18005e946 c6 84 24 d1 01 00 00 20 mov     [rsp+0C0h+arg_F9], 20h ; ' '
0x18002bc34 c6 84 24 d2 01 00 00 20 mov     [rsp+0C0h+arg_FA], 20h ; ' '
0x18002a869 c6 84 24 d3 01 00 00 20 mov     [rsp+0C0h+arg_FB], 20h ; ' '
0x180059328 c6 84 24 d4 01 00 00 20 mov     [rsp+0C0h+arg_FC], 20h ; ' '
0x18001cac3 c6 84 24 d5 01 00 00 22 mov     [rsp+0C0h+arg_FD], 22h ; '"'
0x18000dbf3 c6 84 24 d6 01 00 00 2d mov     [rsp+0C0h+arg_FE], 2Dh ; '-'
0x18001f301 c6 84 24 d7 01 00 00 2e mov     [rsp+0C0h+arg_FF], 2Eh ; '.'
0x180034962 c6 84 24 d8 01 00 00 5f mov     [rsp+0C0h+arg_100], 5Fh ; '_'
0x18005285b c6 84 24 d9 01 00 00 5f mov     [rsp+0C0h+arg_101], 5Fh ; '_'
0x1800294c1 c6 84 24 da 01 00 00 20 mov     [rsp+0C0h+arg_102], 20h ; ' '
0x180055c05 c6 84 24 db 01 00 00 3b mov     [rsp+0C0h+arg_103], 3Bh ; ';'
0x180003e3a c6 84 24 dc 01 00 00 20 mov     [rsp+0C0h+arg_104], 20h ; ' '
0x180060baa c6 84 24 dd 01 00 00 20 mov     [rsp+0C0h+arg_105], 20h ; ' '
0x180030783 c6 84 24 de 01 00 00 2e mov     [rsp+0C0h+arg_106], 2Eh ; '.'
0x18001e417 c6 84 24 df 01 00 00 2d mov     [rsp+0C0h+arg_107], 2Dh ; '-'
0x180002fcb c6 84 24 e0 01 00 00 22 mov     [rsp+0C0h+arg_108], 22h ; '"'
0x18002f867 c6 84 24 e1 01 00 00 20 mov     [rsp+0C0h+arg_109], 20h ; ' '
0x1800500e2 c6 84 24 e2 01 00 00 20 mov     [rsp+0C0h+arg_10A], 20h ; ' '
0x18004f482 c6 84 24 e3 01 00 00 22 mov     [rsp+0C0h+arg_10B], 22h ; '"'
0x180023c1c c6 84 24 e4 01 00 00 2d mov     [rsp+0C0h+arg_10C], 2Dh ; '-'
0x18000d0de c6 84 24 e5 01 00 00 2e mov     [rsp+0C0h+arg_10D], 2Eh ; '.'
0x18004dbe8 c6 84 24 e6 01 00 00 20 mov     [rsp+0C0h+arg_10E], 20h ; ' '
0x180053017 c6 84 24 e7 01 00 00 20 mov     [rsp+0C0h+arg_10F], 20h ; ' '
0x180038d4e c6 84 24 e8 01 00 00 3a mov     [rsp+0C0h+arg_110], 3Ah ; ':'
0x1800138f8 c6 84 24 e9 01 00 00 20 mov     [rsp+0C0h+arg_111], 20h ; ' '
0x18002b64b c6 84 24 ea 01 00 00 5f mov     [rsp+0C0h+arg_112], 5Fh ; '_'
0x180011992 c6 84 24 eb 01 00 00 5f mov     [rsp+0C0h+arg_113], 5Fh ; '_'
0x1800449e5 c6 84 24 ec 01 00 00 2e mov     [rsp+0C0h+arg_114], 2Eh ; '.'
0x180018ca3 c6 84 24 ed 01 00 00 2d mov     [rsp+0C0h+arg_115], 2Dh ; '-'
0x18001cad6 c6 84 24 ee 01 00 00 22 mov     [rsp+0C0h+arg_116], 22h ; '"'
0x18001d04f c6 84 24 ef 01 00 00 20 mov     [rsp+0C0h+arg_117], 20h ; ' '
0x180056880 c6 84 24 f0 01 00 00 20 mov     [rsp+0C0h+arg_118], 20h ; ' '
0x18005434b c6 84 24 f1 01 00 00 20 mov     [rsp+0C0h+arg_119], 20h ; ' '
0x18002942f c6 84 24 f2 01 00 00 20 mov     [rsp+0C0h+arg_11A], 20h ; ' '
0x18003e908 c6 84 24 f3 01 00 00 20 mov     [rsp+0C0h+arg_11B], 20h ; ' '
0x18005fea9 c6 84 24 f4 01 00 00 20 mov     [rsp+0C0h+arg_11C], 20h ; ' '
0x180021557 c6 84 24 f5 01 00 00 20 mov     [rsp+0C0h+arg_11D], 20h ; ' '
0x18001f9f4 c6 84 24 f6 01 00 00 0d mov     [rsp+0C0h+arg_11E], 0Dh
0x1800367db c6 84 24 f7 01 00 00 0a mov     [rsp+0C0h+arg_11F], 0Ah
0x180060469 c6 84 24 f8 01 00 00 20 mov     [rsp+0C0h+arg_120], 20h ; ' '
0x180013079 c6 84 24 f9 01 00 00 20 mov     [rsp+0C0h+arg_121], 20h ; ' '
0x1800399da c6 84 24 fa 01 00 00 20 mov     [rsp+0C0h+arg_122], 20h ; ' '
0x180009e9e c6 84 24 fb 01 00 00 20 mov     [rsp+0C0h+arg_123], 20h ; ' '
0x1800054bb c6 84 24 fc 01 00 00 20 mov     byte ptr [rsp+1FCh], 20h ; ' '
0x18004568e c6 84 24 fd 01 00 00 20 mov     byte ptr [rsp+1FDh], 20h ; ' '
0x180009c43 c6 84 24 fe 01 00 00 20 mov     byte ptr [rsp+1FEh], 20h ; ' '
0x18004dcaf c6 84 24 ff 01 00 00 20 mov     byte ptr [rsp+1FFh], 20h ; ' '
0x1800068e7 c6 84 24 00 02 00 00 20 mov     byte ptr [rsp+200h], 20h ; ' '
0x18006362f c6 84 24 01 02 00 00 20 mov     byte ptr [rsp+201h], 20h ; ' '
0x180054243 c6 84 24 02 02 00 00 20 mov     byte ptr [rsp+202h], 20h ; ' '
0x180017947 c6 84 24 03 02 00 00 20 mov     byte ptr [rsp+203h], 20h ; ' '
0x18002d7dc c6 84 24 04 02 00 00 4c mov     byte ptr [rsp+204h], 4Ch ; 'L'
0x18001f85a c6 84 24 05 02 00 00 20 mov     byte ptr [rsp+205h], 20h ; ' '
0x180009338 c6 84 24 06 02 00 00 27 mov     byte ptr [rsp+206h], 27h ; '''
0x180038c2d c6 84 24 07 02 00 00 20 mov     byte ptr [rsp+207h], 20h ; ' '
0x18004c555 c6 84 24 08 02 00 00 2f mov     byte ptr [rsp+208h], 2Fh ; '/'
0x18004edef c6 84 24 09 02 00 00 2e mov     byte ptr [rsp+209h], 2Eh ; '.'
0x180030e40 c6 84 24 0a 02 00 00 2d mov     byte ptr [rsp+20Ah], 2Dh ; '-'
0x1800597a2 c6 84 24 0b 02 00 00 2d mov     byte ptr [rsp+20Bh], 2Dh ; '-'
0x1800641f7 c6 84 24 0c 02 00 00 2d mov     byte ptr [rsp+20Ch], 2Dh ; '-'
0x1800645df c6 84 24 0d 02 00 00 2d mov     byte ptr [rsp+20Dh], 2Dh ; '-'
0x18001c7e2 c6 84 24 0e 02 00 00 2d mov     byte ptr [rsp+20Eh], 2Dh ; '-'
0x18000e08a c6 84 24 0f 02 00 00 2d mov     byte ptr [rsp+20Fh], 2Dh ; '-'
0x18001b21d c6 84 24 10 02 00 00 2e mov     byte ptr [rsp+210h], 2Eh ; '.'
0x18005890a c6 84 24 11 02 00 00 5c mov     byte ptr [rsp+211h], 5Ch ; '\'
0x1800115ef c6 84 24 12 02 00 00 20 mov     byte ptr [rsp+212h], 20h ; ' '
0x180052a25 c6 84 24 13 02 00 00 27 mov     byte ptr [rsp+213h], 27h ; '''
0x180016906 c6 84 24 14 02 00 00 20 mov     byte ptr [rsp+214h], 20h ; ' '
0x18004b2e3 c6 84 24 15 02 00 00 4a mov     byte ptr [rsp+215h], 4Ah ; 'J'
0x1800462f1 c6 84 24 16 02 00 00 20 mov     byte ptr [rsp+216h], 20h ; ' '
0x18000c13e c6 84 24 17 02 00 00 20 mov     byte ptr [rsp+217h], 20h ; ' '
0x1800170fb c6 84 24 18 02 00 00 20 mov     byte ptr [rsp+218h], 20h ; ' '
0x180010743 c6 84 24 19 02 00 00 20 mov     byte ptr [rsp+219h], 20h ; ' '
0x180025450 c6 84 24 1a 02 00 00 20 mov     byte ptr [rsp+21Ah], 20h ; ' '
0x18001c5a3 c6 84 24 1b 02 00 00 20 mov     byte ptr [rsp+21Bh], 20h ; ' '
0x180031c3c c6 84 24 1c 02 00 00 20 mov     byte ptr [rsp+21Ch], 20h ; ' '
0x1800025a9 c6 84 24 1d 02 00 00 20 mov     byte ptr [rsp+21Dh], 20h ; ' '
0x18001a88e c6 84 24 1e 02 00 00 20 mov     byte ptr [rsp+21Eh], 20h ; ' '
0x18003e66d c6 84 24 1f 02 00 00 20 mov     byte ptr [rsp+21Fh], 20h ; ' '
0x1800439a0 c6 84 24 20 02 00 00 20 mov     [rsp+arg_218], 20h ; ' '
0x1800062bd c6 84 24 21 02 00 00 0d mov     [rsp+arg_219], 0Dh
0x18003cd82 c6 84 24 22 02 00 00 0a mov     [rsp+arg_21A], 0Ah
0x18002ae0e c6 84 24 23 02 00 00 20 mov     [rsp+arg_21B], 20h ; ' '
0x180027117 c6 84 24 24 02 00 00 20 mov     [rsp+arg_21C], 20h ; ' '
0x18001e171 c6 84 24 25 02 00 00 20 mov     [rsp+arg_21D], 20h ; ' '
0x180003e56 c6 84 24 26 02 00 00 20 mov     [rsp+arg_21E], 20h ; ' '
0x1800012ea c6 84 24 27 02 00 00 20 mov     [rsp+arg_21F], 20h ; ' '
0x18005dc51 c6 84 24 28 02 00 00 20 mov     byte ptr [rsp+228h], 20h ; ' '
0x18004b467 c6 84 24 29 02 00 00 20 mov     byte ptr [rsp+229h], 20h ; ' '
0x180027c55 c6 84 24 2a 02 00 00 20 mov     [rsp+arg_222], 20h ; ' '
0x18002533c c6 84 24 2b 02 00 00 20 mov     [rsp+arg_223], 20h ; ' '
0x18001a341 c6 84 24 2c 02 00 00 20 mov     [rsp+arg_224], 20h ; ' '
0x1800425ab c6 84 24 2d 02 00 00 20 mov     [rsp+arg_225], 20h ; ' '
0x1800612ff c6 84 24 2e 02 00 00 20 mov     byte ptr [rsp+22Eh], 20h ; ' '
0x180052b8c c6 84 24 2f 02 00 00 20 mov     byte ptr [rsp+22Fh], 20h ; ' '
0x180008b55 c6 84 24 30 02 00 00 22 mov     [rsp+arg_228], 22h ; '"'
0x18001773c c6 84 24 31 02 00 00 2d mov     [rsp+arg_229], 2Dh ; '-'
0x18002d0e8 c6 84 24 32 02 00 00 2e mov     [rsp+arg_22A], 2Eh ; '.'
0x18002c914 c6 84 24 33 02 00 00 20 mov     [rsp+arg_22B], 20h ; ' '
0x18001a9ee c6 84 24 34 02 00 00 20 mov     [rsp+arg_22C], 20h ; ' '
0x18005a26f c6 84 24 35 02 00 00 20 mov     byte ptr [rsp+235h], 20h ; ' '
0x1800232c3 c6 84 24 36 02 00 00 22 mov     [rsp+arg_22E], 22h ; '"'
0x180027397 c6 84 24 37 02 00 00 2d mov     [rsp+arg_22F], 2Dh ; '-'
0x180030d8e c6 84 24 38 02 00 00 2d mov     [rsp+arg_230], 2Dh ; '-'
0x1800352e6 c6 84 24 39 02 00 00 22 mov     [rsp+arg_231], 22h ; '"'
0x18001257e c6 84 24 3a 02 00 00 20 mov     [rsp+arg_232], 20h ; ' '
0x180024ed8 c6 84 24 3b 02 00 00 20 mov     [rsp+arg_233], 20h ; ' '
0x180052dd1 c6 84 24 3c 02 00 00 20 mov     byte ptr [rsp+23Ch], 20h ; ' '
0x18004412b c6 84 24 3d 02 00 00 2e mov     [rsp+arg_235], 2Eh ; '.'
0x180010706 c6 84 24 3e 02 00 00 2d mov     [rsp+arg_236], 2Dh ; '-'
0x18000a3b5 c6 84 24 3f 02 00 00 22 mov     [rsp+arg_237], 22h ; '"'
0x18004bab8 c6 84 24 40 02 00 00 20 mov     byte ptr [rsp+240h], 20h ; ' '
0x18004c9ff c6 84 24 41 02 00 00 20 mov     byte ptr [rsp+241h], 20h ; ' '
0x180050d9b c6 84 24 42 02 00 00 20 mov     byte ptr [rsp+242h], 20h ; ' '
0x18003e1a8 c6 84 24 43 02 00 00 20 mov     [rsp+arg_23B], 20h ; ' '
0x180028ee6 c6 84 24 44 02 00 00 20 mov     [rsp+arg_23C], 20h ; ' '
0x18004d3ec c6 84 24 45 02 00 00 20 mov     byte ptr [rsp+245h], 20h ; ' '
0x1800023a1 c6 84 24 46 02 00 00 20 mov     [rsp+arg_23E], 20h ; ' '
0x18005ce07 c6 84 24 47 02 00 00 20 mov     byte ptr [rsp+247h], 20h ; ' '
0x180041d8e c6 84 24 48 02 00 00 20 mov     [rsp+arg_240], 20h ; ' '
0x180047c23 c6 84 24 49 02 00 00 20 mov     [rsp+arg_239], 20h ; ' '
0x180023c2c c6 84 24 4a 02 00 00 20 mov     [rsp+arg_242], 20h ; ' '
0x18001b2a6 c6 84 24 4b 02 00 00 20 mov     [rsp+arg_243], 20h ; ' '
0x18004f6ca c6 84 24 4c 02 00 00 0d mov     byte ptr [rsp+24Ch], 0Dh
0x18001fbde c6 84 24 4d 02 00 00 0a mov     [rsp+arg_245], 0Ah
0x18004452f c6 84 24 4e 02 00 00 20 mov     [rsp+arg_246], 20h ; ' '
0x180054c87 c6 84 24 4f 02 00 00 20 mov     [rsp+arg_23F], 20h ; ' '
0x180052803 c6 84 24 50 02 00 00 20 mov     byte ptr [rsp+250h], 20h ; ' '
0x1800443f5 c6 84 24 51 02 00 00 20 mov     [rsp+arg_249], 20h ; ' '
0x18000602b c6 84 24 52 02 00 00 20 mov     [rsp+arg_24A], 20h ; ' '
0x180063736 c6 84 24 53 02 00 00 20 mov     byte ptr [rsp+253h], 20h ; ' '
0x180047cbf c6 84 24 54 02 00 00 20 mov     [rsp+arg_244], 20h ; ' '
0x180051550 c6 84 24 55 02 00 00 20 mov     byte ptr [rsp+255h], 20h ; ' '
0x18000a711 c6 84 24 56 02 00 00 20 mov     [rsp+arg_24E], 20h ; ' '
0x180023e07 c6 84 24 57 02 00 00 20 mov     [rsp+arg_24F], 20h ; ' '
0x180009c8a c6 84 24 58 02 00 00 20 mov     [rsp+arg_250], 20h ; ' '
0x180047130 c6 84 24 59 02 00 00 20 mov     [rsp+arg_251], 20h ; ' '
0x18002feeb c6 84 24 5a 02 00 00 5f mov     [rsp+20h+arg_232], 5Fh ; '_'
0x18000af15 c6 84 24 5b 02 00 00 5f mov     [rsp+20h+arg_22B], 5Fh ; '_'
0x18004428f c6 84 24 5c 02 00 00 2e mov     [rsp+20h+arg_22C], 2Eh ; '.'
0x180025d4f c6 84 24 5d 02 00 00 6c mov     [rsp+20h+arg_22D], 6Ch ; 'l'
0x180042e7b c6 84 24 5e 02 00 00 22 mov     [rsp+20h+arg_22E], 22h ; '"'
0x180001c7c c6 84 24 5f 02 00 00 2d mov     [rsp+20h+arg_22F], 2Dh ; '-'
0x1800350e0 c6 84 24 60 02 00 00 3a mov     [rsp+20h+arg_230], 3Ah ; ':'
0x18005f3b3 c6 84 24 61 02 00 00 5f mov     [rsp+20h+arg_231], 5Fh ; '_'
0x1800040a2 c6 84 24 62 02 00 00 4a mov     byte ptr [rsp+262h], 4Ah ; 'J'
0x18005b337 c6 84 24 63 02 00 00 4c mov     byte ptr [rsp+263h], 4Ch ; 'L'
0x1800519d6 c6 84 24 64 02 00 00 5f mov     byte ptr [rsp+264h], 5Fh ; '_'
0x180065ddd c6 84 24 65 02 00 00 3b mov     byte ptr [rsp+265h], 3Bh ; ';'
0x18002363e c6 84 24 66 02 00 00 2d mov     byte ptr [rsp+266h], 2Dh ; '-'
0x180033a37 c6 84 24 67 02 00 00 22 mov     byte ptr [rsp+267h], 22h ; '"'
0x180038076 c6 84 24 68 02 00 00 3b mov     byte ptr [rsp+268h], 3Bh ; ';'
0x18002883b c6 84 24 69 02 00 00 2e mov     byte ptr [rsp+269h], 2Eh ; '.'
0x1800649ba c6 84 24 6a 02 00 00 5f mov     byte ptr [rsp+26Ah], 5Fh ; '_'
0x180060c90 c6 84 24 6b 02 00 00 5f mov     byte ptr [rsp+26Bh], 5Fh ; '_'
0x18004ffb0 c6 84 24 6c 02 00 00 20 mov     byte ptr [rsp+26Ch], 20h ; ' '
0x180022069 c6 84 24 6d 02 00 00 20 mov     byte ptr [rsp+26Dh], 20h ; ' '
0x18005532a c6 84 24 6e 02 00 00 20 mov     byte ptr [rsp+26Eh], 20h ; ' '
0x180006c8d c6 84 24 6f 02 00 00 20 mov     byte ptr [rsp+26Fh], 20h ; ' '
0x18005d8e3 c6 84 24 70 02 00 00 20 mov     byte ptr [rsp+270h], 20h ; ' '
0x180033ce2 c6 84 24 71 02 00 00 20 mov     byte ptr [rsp+271h], 20h ; ' '
0x18001aaab c6 84 24 72 02 00 00 20 mov     byte ptr [rsp+272h], 20h ; ' '
0x180062549 c6 84 24 73 02 00 00 20 mov     byte ptr [rsp+273h], 20h ; ' '
0x180014991 c6 84 24 74 02 00 00 20 mov     byte ptr [rsp+274h], 20h ; ' '
0x18002f69a c6 84 24 75 02 00 00 20 mov     [rsp+8+arg_265], 20h ; ' '
0x1800061d5 c6 84 24 76 02 00 00 20 mov     [rsp+8+arg_25E], 20h ; ' '
0x18003a51d c6 84 24 77 02 00 00 0d mov     [rsp+8+arg_25F], 0Dh
0x18002af4e c6 84 24 78 02 00 00 0a mov     [rsp+8+arg_260], 0Ah
0x180059b71 c6 84 24 79 02 00 00 20 mov     [rsp+8+arg_261], 20h ; ' '
0x18001ef08 c6 84 24 7a 02 00 00 20 mov     [rsp+8+arg_262], 20h ; ' '
0x18000962e c6 84 24 7b 02 00 00 20 mov     [rsp+8+arg_263], 20h ; ' '
0x180006078 c6 84 24 7c 02 00 00 20 mov     [rsp+8+arg_264], 20h ; ' '
0x1800010b7 c6 84 24 7d 02 00 00 20 mov     byte ptr [rsp+27Dh], 20h ; ' '
0x180007777 c6 84 24 7e 02 00 00 20 mov     [rsp+8+arg_26E], 20h ; ' '
0x180042b96 c6 84 24 7f 02 00 00 20 mov     [rsp+8+arg_26F], 20h ; ' '
0x18004c8ef c6 84 24 80 02 00 00 20 mov     [rsp+8+arg_270], 20h ; ' '
0x18000828a c6 84 24 81 02 00 00 20 mov     [rsp+28h+arg_251], 20h ; ' '
0x18001642d c6 84 24 82 02 00 00 2e mov     [rsp+28h+arg_252], 2Eh ; '.'
0x18002dc9d c6 84 24 83 02 00 00 2d mov     [rsp+28h+arg_24B], 2Dh ; '-'
0x180063aa7 c6 84 24 84 02 00 00 6a mov     [rsp+28h+arg_24C], 6Ah ; 'j'
0x180026597 c6 84 24 85 02 00 00 2f mov     [rsp+28h+arg_255], 2Fh ; '/'
0x18000a001 c6 84 24 86 02 00 00 27 mov     [rsp+28h+arg_256], 27h ; '''
0x18000956e c6 84 24 87 02 00 00 2e mov     [rsp+28h+arg_257], 2Eh ; '.'
0x18004ea0d c6 84 24 88 02 00 00 3b mov     [rsp+28h+arg_250], 3Bh ; ';'
0x180064b69 c6 84 24 89 02 00 00 20 mov     byte ptr [rsp+289h], 20h ; ' '
0x180034880 c6 84 24 8a 02 00 00 20 mov     byte ptr [rsp+28Ah], 20h ; ' '
0x18001f285 c6 84 24 8b 02 00 00 3b mov     [rsp+arg_283], 3Bh ; ';'
0x180035afb c6 84 24 8c 02 00 00 22 mov     [rsp+arg_27C], 22h ; '"'
0x1800391ff c6 84 24 8d 02 00 00 22 mov     [rsp+arg_27D], 22h ; '"'
0x180023dd2 c6 84 24 8e 02 00 00 22 mov     [rsp+arg_286], 22h ; '"'
0x180058542 c6 84 24 8f 02 00 00 22 mov     [rsp+arg_27F], 22h ; '"'
0x18004787f c6 84 24 90 02 00 00 20 mov     [rsp+arg_280], 20h ; ' '
0x180033687 c6 84 24 91 02 00 00 20 mov     [rsp+arg_281], 20h ; ' '
0x180047ab2 c6 84 24 92 02 00 00 2f mov     [rsp+arg_282], 2Fh ; '/'
0x180055237 c6 84 24 93 02 00 00 20 mov     byte ptr [rsp+293h], 20h ; ' '
0x180041c70 c6 84 24 94 02 00 00 2e mov     [rsp+arg_284], 2Eh ; '.'
0x1800459cc c6 84 24 95 02 00 00 27 mov     [rsp+arg_285], 27h ; '''
0x18000ccf5 c6 84 24 96 02 00 00 5c mov     [rsp+arg_28E], 5Ch ; '\'
0x1800104a9 c6 84 24 97 02 00 00 22 mov     [rsp+arg_28F], 22h ; '"'
0x180053a5c c6 84 24 98 02 00 00 2d mov     [rsp+arg_288], 2Dh ; '-'
0x180035ce4 c6 84 24 99 02 00 00 2e mov     [rsp+arg_289], 2Eh ; '.'
0x180044fd5 c6 84 24 9a 02 00 00 20 mov     [rsp+arg_28A], 20h ; ' '
0x180060d37 c6 84 24 9b 02 00 00 20 mov     [rsp+arg_28B], 20h ; ' '
0x18002052c c6 84 24 9c 02 00 00 20 mov     [rsp+arg_294], 20h ; ' '
0x180033075 c6 84 24 9d 02 00 00 20 mov     [rsp+arg_28D], 20h ; ' '
0x180052280 c6 84 24 9e 02 00 00 20 mov     byte ptr [rsp+29Eh], 20h ; ' '
0x18003a3d0 c6 84 24 9f 02 00 00 20 mov     byte ptr [rsp+29Fh], 20h ; ' '
0x18004562e c6 84 24 a0 02 00 00 20 mov     [rsp+arg_290], 20h ; ' '
0x1800362fa c6 84 24 a1 02 00 00 20 mov     [rsp+arg_291], 20h ; ' '
0x18001631c c6 84 24 a2 02 00 00 0d mov     [rsp+arg_29A], 0Dh
0x18002f72d c6 84 24 a3 02 00 00 0a mov     [rsp+arg_293], 0Ah
0x1800457af c6 84 24 a4 02 00 00 20 mov     byte ptr [rsp+2A4h], 20h ; ' '
0x18001d629 c6 84 24 a5 02 00 00 20 mov     [rsp+arg_29D], 20h ; ' '
0x18000201e c6 84 24 a6 02 00 00 20 mov     [rsp+arg_29E], 20h ; ' '
0x18004b617 c6 84 24 a7 02 00 00 20 mov     [rsp+arg_297], 20h ; ' '
0x180058740 c6 84 24 a8 02 00 00 20 mov     [rsp+arg_298], 20h ; ' '
0x18004a675 c6 84 24 a9 02 00 00 20 mov     [rsp+arg_299], 20h ; ' '
0x180037790 c6 84 24 aa 02 00 00 20 mov     byte ptr [rsp+2AAh], 20h ; ' '
0x1800466df c6 84 24 ab 02 00 00 2e mov     [rsp+arg_29B], 2Eh ; '.'
0x18002e94e c6 84 24 ac 02 00 00 27 mov     [rsp+arg_29C], 27h ; '''
0x180020452 c6 84 24 ad 02 00 00 20 mov     [rsp+arg_2A5], 20h ; ' '
0x1800255ec c6 84 24 ae 02 00 00 2f mov     [rsp+arg_2A6], 2Fh ; '/'
0x18004fe1e c6 84 24 af 02 00 00 3a mov     [rsp+arg_29F], 3Ah ; ':'
0x1800574ab c6 84 24 b0 02 00 00 60 mov     [rsp+arg_2A0], 60h ; '`'
0x180013e2b c6 84 24 b1 02 00 00 2e mov     [rsp+arg_2A9], 2Eh ; '.'
0x18001df29 c6 84 24 b2 02 00 00 20 mov     [rsp+arg_2AA], 20h ; ' '
0x180030970 c6 84 24 b3 02 00 00 22 mov     [rsp+arg_2A3], 22h ; '"'
0x18005ae3c c6 84 24 b4 02 00 00 2d mov     [rsp+arg_2A4], 2Dh ; '-'
0x18002b208 c6 84 24 b5 02 00 00 2e mov     byte ptr [rsp+2B5h], 2Eh ; '.'
0x180051ac7 c6 84 24 b6 02 00 00 3a mov     byte ptr [rsp+2B6h], 3Ah ; ':'
0x18003cc72 c6 84 24 b7 02 00 00 20 mov     [rsp+arg_2A7], 20h ; ' '
0x180021262 c6 84 24 b8 02 00 00 20 mov     [rsp+arg_2B0], 20h ; ' '
0x18000755c c6 84 24 b9 02 00 00 20 mov     [rsp+arg_2B1], 20h ; ' '
0x180019873 c6 84 24 ba 02 00 00 20 mov     [rsp+arg_2B2], 20h ; ' '
0x1800455e5 c6 84 24 bb 02 00 00 20 mov     [rsp+arg_2AB], 20h ; ' '
0x180022da6 c6 84 24 bc 02 00 00 2e mov     [rsp+arg_2B4], 2Eh ; '.'
0x18002b8d0 c6 84 24 bd 02 00 00 2d mov     [rsp+arg_2AD], 2Dh ; '-'
0x18003792e c6 84 24 be 02 00 00 22 mov     [rsp+arg_2AE], 22h ; '"'
0x1800278ae c6 84 24 bf 02 00 00 20 mov     [rsp+arg_2B7], 20h ; ' '
0x180004bd3 c6 84 24 c0 02 00 00 2e mov     byte ptr [rsp+2C0h], 2Eh ; '.'
0x18005a0c0 c6 84 24 c1 02 00 00 27 mov     byte ptr [rsp+2C1h], 27h ; '''
0x18005ffc3 c6 84 24 c2 02 00 00 3b mov     byte ptr [rsp+2C2h], 3Bh ; ';'
0x180049f94 c6 84 24 c3 02 00 00 20 mov     byte ptr [rsp+2C3h], 20h ; ' '
0x180047e2e c6 84 24 c4 02 00 00 20 mov     byte ptr [rsp+2C4h], 20h ; ' '
0x180024ab0 c6 84 24 c5 02 00 00 60 mov     byte ptr [rsp+2C5h], 60h ; '`'
0x18005637a c6 84 24 c6 02 00 00 2e mov     byte ptr [rsp+2C6h], 2Eh ; '.'
0x18001fbb7 c6 84 24 c7 02 00 00 20 mov     byte ptr [rsp+2C7h], 20h ; ' '
0x18004cefd c6 84 24 c8 02 00 00 20 mov     byte ptr [rsp+2C8h], 20h ; ' '
0x1800571ac c6 84 24 c9 02 00 00 20 mov     byte ptr [rsp+2C9h], 20h ; ' '
0x18005aca1 c6 84 24 ca 02 00 00 20 mov     byte ptr [rsp+2CAh], 20h ; ' '
0x18002d365 c6 84 24 cb 02 00 00 20 mov     byte ptr [rsp+2CBh], 20h ; ' '
0x180059dcb c6 84 24 cc 02 00 00 20 mov     byte ptr [rsp+2CCh], 20h ; ' '
0x180045d4c c6 84 24 cd 02 00 00 0d mov     byte ptr [rsp+2CDh], 0Dh
0x18002978c c6 84 24 ce 02 00 00 0a mov     byte ptr [rsp+2CEh], 0Ah
0x180023b8a c6 84 24 cf 02 00 00 20 mov     byte ptr [rsp+2CFh], 20h ; ' '
0x1800279ba c6 84 24 d0 02 00 00 20 mov     byte ptr [rsp+2D0h], 20h ; ' '
0x180059edd c6 84 24 d1 02 00 00 20 mov     byte ptr [rsp+2D1h], 20h ; ' '
0x18001c38a c6 84 24 d2 02 00 00 20 mov     byte ptr [rsp+2D2h], 20h ; ' '
0x18000d136 c6 84 24 d3 02 00 00 2e mov     byte ptr [rsp+2D3h], 2Eh ; '.'
0x18003564c c6 84 24 d4 02 00 00 2d mov     byte ptr [rsp+2D4h], 2Dh ; '-'
0x18004b485 c6 84 24 d5 02 00 00 22 mov     byte ptr [rsp+2D5h], 22h ; '"'
0x180056486 c6 84 24 d6 02 00 00 20 mov     byte ptr [rsp+2D6h], 20h ; ' '
0x1800230db c6 84 24 d7 02 00 00 20 mov     byte ptr [rsp+2D7h], 20h ; ' '
0x18002bf08 c6 84 24 d8 02 00 00 2f mov     byte ptr [rsp+2D8h], 2Fh ; '/'
0x1800463c5 c6 84 24 d9 02 00 00 20 mov     byte ptr [rsp+2D9h], 20h ; ' '
0x18001846c c6 84 24 da 02 00 00 3b mov     byte ptr [rsp+2DAh], 3Bh ; ';'
0x18006551a c6 84 24 db 02 00 00 20 mov     byte ptr [rsp+2DBh], 20h ; ' '
0x18003dca2 c6 84 24 dc 02 00 00 20 mov     byte ptr [rsp+2DCh], 20h ; ' '
0x18001ea43 c6 84 24 dd 02 00 00 22 mov     byte ptr [rsp+2DDh], 22h ; '"'
0x180032051 c6 84 24 de 02 00 00 2d mov     byte ptr [rsp+2DEh], 2Dh ; '-'
0x180064b44 c6 84 24 df 02 00 00 2e mov     byte ptr [rsp+2DFh], 2Eh ; '.'
0x180003281 c6 84 24 e0 02 00 00 20 mov     byte ptr [rsp+2E0h], 20h ; ' '
0x180063cc0 c6 84 24 e1 02 00 00 22 mov     byte ptr [rsp+2E1h], 22h ; '"'
0x180056f3e c6 84 24 e2 02 00 00 2d mov     byte ptr [rsp+2E2h], 2Dh ; '-'
0x1800013df c6 84 24 e3 02 00 00 2e mov     byte ptr [rsp+2E3h], 2Eh ; '.'
0x18005263f c6 84 24 e4 02 00 00 2e mov     byte ptr [rsp+2E4h], 2Eh ; '.'
0x180046116 c6 84 24 e5 02 00 00 2d mov     byte ptr [rsp+2E5h], 2Dh ; '-'
0x180049327 c6 84 24 e6 02 00 00 22 mov     byte ptr [rsp+2E6h], 22h ; '"'
0x18004b199 c6 84 24 e7 02 00 00 20 mov     byte ptr [rsp+2E7h], 20h ; ' '
0x18002893e c6 84 24 e8 02 00 00 2e mov     byte ptr [rsp+2E8h], 2Eh ; '.'
0x18002494b c6 84 24 e9 02 00 00 2d mov     byte ptr [rsp+2E9h], 2Dh ; '-'
0x18000e384 c6 84 24 ea 02 00 00 22 mov     byte ptr [rsp+2EAh], 22h ; '"'
0x18004d394 c6 84 24 eb 02 00 00 20 mov     [rsp+arg_2DB], 20h ; ' '
0x18004f36c c6 84 24 ec 02 00 00 20 mov     [rsp+arg_2DC], 20h ; ' '
0x18005bd81 c6 84 24 ed 02 00 00 3a mov     [rsp+arg_2DD], 3Ah ; ':'
0x180053086 c6 84 24 ee 02 00 00 20 mov     [rsp+arg_2DE], 20h ; ' '
0x18002fed4 c6 84 24 ef 02 00 00 20 mov     [rsp+arg_2DF], 20h ; ' '
0x18002e9a1 c6 84 24 f0 02 00 00 20 mov     [rsp+arg_2E0], 20h ; ' '
0x180011e6f c6 84 24 f1 02 00 00 20 mov     [rsp+arg_2E9], 20h ; ' '
0x180005b41 c6 84 24 f2 02 00 00 22 mov     byte ptr [rsp+2F2h], 22h ; '"'
0x1800288ee c6 84 24 f3 02 00 00 2d mov     byte ptr [rsp+2F3h], 2Dh ; '-'
0x180015feb c6 84 24 f4 02 00 00 2e mov     byte ptr [rsp+2F4h], 2Eh ; '.'
0x18000edad c6 84 24 f5 02 00 00 20 mov     byte ptr [rsp+2F5h], 20h ; ' '
0x18001dd20 c6 84 24 f6 02 00 00 20 mov     byte ptr [rsp+2F6h], 20h ; ' '
0x180042687 c6 84 24 f7 02 00 00 20 mov     byte ptr [rsp+2F7h], 20h ; ' '
0x180046624 c6 84 24 f8 02 00 00 0d mov     byte ptr [rsp+2F8h], 0Dh
0x18002375a c6 84 24 f9 02 00 00 0a mov     byte ptr [rsp+2F9h], 0Ah
0x18005bd33 c6 84 24 fa 02 00 00 20 mov     byte ptr [rsp+2FAh], 20h ; ' '
0x180030c07 c6 84 24 fb 02 00 00 2e mov     byte ptr [rsp+2FBh], 2Eh ; '.'
0x18001138a c6 84 24 fc 02 00 00 2b mov     byte ptr [rsp+2FCh], 2Bh ; '+'
0x1800034d6 c6 84 24 fd 02 00 00 22 mov     byte ptr [rsp+2FDh], 22h ; '"'
0x18001a737 c6 84 24 fe 02 00 00 2d mov     byte ptr [rsp+2FEh], 2Dh ; '-'
0x180031794 c6 84 24 ff 02 00 00 2e mov     byte ptr [rsp+2FFh], 2Eh ; '.'
0x180020bc3 c6 84 24 00 03 00 00 20 mov     byte ptr [rsp+300h], 20h ; ' '
0x180060596 c6 84 24 01 03 00 00 20 mov     byte ptr [rsp+301h], 20h ; ' '
0x18005aae7 c6 84 24 02 03 00 00 3a mov     byte ptr [rsp+302h], 3Ah ; ':'
0x18002b128 c6 84 24 03 03 00 00 20 mov     byte ptr [rsp+303h], 20h ; ' '
0x180007c21 c6 84 24 04 03 00 00 3a mov     byte ptr [rsp+304h], 3Ah ; ':'
0x18003b32a c6 84 24 05 03 00 00 20 mov     byte ptr [rsp+305h], 20h ; ' '
0x180064a29 c6 84 24 06 03 00 00 20 mov     byte ptr [rsp+306h], 20h ; ' '
0x18002ea10 c6 84 24 07 03 00 00 20 mov     byte ptr [rsp+307h], 20h ; ' '
0x180019bd5 c6 84 24 08 03 00 00 20 mov     byte ptr [rsp+308h], 20h ; ' '
0x180044b61 c6 84 24 09 03 00 00 20 mov     byte ptr [rsp+309h], 20h ; ' '
0x180042b61 c6 84 24 0a 03 00 00 20 mov     byte ptr [rsp+30Ah], 20h ; ' '
0x18000d58f c6 84 24 0b 03 00 00 22 mov     byte ptr [rsp+30Bh], 22h ; '"'
0x180013cd0 c6 84 24 0c 03 00 00 2d mov     byte ptr [rsp+30Ch], 2Dh ; '-'
0x18004da11 c6 84 24 0d 03 00 00 2e mov     byte ptr [rsp+30Dh], 2Eh ; '.'
0x180002e00 c6 84 24 0e 03 00 00 5f mov     byte ptr [rsp+30Eh], 5Fh ; '_'
0x180029fd5 c6 84 24 0f 03 00 00 5f mov     byte ptr [rsp+30Fh], 5Fh ; '_'
0x180019ebd c6 84 24 10 03 00 00 2e mov     byte ptr [rsp+310h], 2Eh ; '.'
0x180022baf c6 84 24 11 03 00 00 2d mov     byte ptr [rsp+311h], 2Dh ; '-'
0x18005ae82 c6 84 24 12 03 00 00 22 mov     byte ptr [rsp+312h], 22h ; '"'
0x180040dd7 c6 84 24 13 03 00 00 20 mov     byte ptr [rsp+313h], 20h ; ' '
0x18001cba4 c6 84 24 14 03 00 00 20 mov     byte ptr [rsp+314h], 20h ; ' '
0x180018f2f c6 84 24 15 03 00 00 20 mov     byte ptr [rsp+315h], 20h ; ' '
0x180059bb3 c6 84 24 16 03 00 00 20 mov     byte ptr [rsp+316h], 20h ; ' '
0x180042ccf c6 84 24 17 03 00 00 20 mov     byte ptr [rsp+317h], 20h ; ' '
0x18001754f c6 84 24 18 03 00 00 20 mov     byte ptr [rsp+318h], 20h ; ' '
0x180030621 c6 84 24 19 03 00 00 3b mov     byte ptr [rsp+319h], 3Bh ; ';'
0x18005ada6 c6 84 24 1a 03 00 00 2d mov     byte ptr [rsp+31Ah], 2Dh ; '-'
0x18000a0c3 c6 84 24 1b 03 00 00 2e mov     byte ptr [rsp+31Bh], 2Eh ; '.'
0x180045155 c6 84 24 1c 03 00 00 5f mov     byte ptr [rsp+31Ch], 5Fh ; '_'
0x18003122b c6 84 24 1d 03 00 00 20 mov     byte ptr [rsp+31Dh], 20h ; ' '
0x18006184d c6 84 24 1e 03 00 00 20 mov     byte ptr [rsp+31Eh], 20h ; ' '
0x180013672 c6 84 24 1f 03 00 00 20 mov     byte ptr [rsp+31Fh], 20h ; ' '
0x18000f776 c6 84 24 20 03 00 00 5c mov     byte ptr [rsp+320h], 5Ch ; '\'
0x180019a69 c6 84 24 21 03 00 00 20 mov     byte ptr [rsp+321h], 20h ; ' '
0x180046c95 c6 84 24 22 03 00 00 20 mov     byte ptr [rsp+322h], 20h ; ' '
0x180001f36 c6 84 24 23 03 00 00 0d mov     byte ptr [rsp+323h], 0Dh
0x180005aa2 c6 84 24 24 03 00 00 0a mov     byte ptr [rsp+324h], 0Ah
0x18005e88b c6 84 24 25 03 00 00 20 mov     byte ptr [rsp+325h], 20h ; ' '
0x180052b08 c6 84 24 26 03 00 00 3b mov     byte ptr [rsp+326h], 3Bh ; ';'
0x18005df6d c6 84 24 27 03 00 00 20 mov     byte ptr [rsp+327h], 20h ; ' '
0x1800163c9 c6 84 24 28 03 00 00 5c mov     byte ptr [rsp+328h], 5Ch ; '\'
0x18002161d c6 84 24 29 03 00 00 20 mov     byte ptr [rsp+329h], 20h ; ' '
0x1800352f5 c6 84 24 2a 03 00 00 20 mov     byte ptr [rsp+32Ah], 20h ; ' '
0x1800600ba c6 84 24 2b 03 00 00 60 mov     byte ptr [rsp+32Bh], 60h ; '`'
0x180009369 c6 84 24 2c 03 00 00 2e mov     byte ptr [rsp+32Ch], 2Eh ; '.'
0x18001ee9c c6 84 24 2d 03 00 00 3b mov     byte ptr [rsp+32Dh], 3Bh ; ';'
0x18000997b c6 84 24 2e 03 00 00 20 mov     byte ptr [rsp+32Eh], 20h ; ' '
0x1800542b3 c6 84 24 2f 03 00 00 3b mov     byte ptr [rsp+32Fh], 3Bh ; ';'
0x1800444c2 c6 84 24 30 03 00 00 20 mov     byte ptr [rsp+330h], 20h ; ' '
0x18001fb27 c6 84 24 31 03 00 00 20 mov     byte ptr [rsp+331h], 20h ; ' '
0x18001a07f c6 84 24 32 03 00 00 20 mov     byte ptr [rsp+332h], 20h ; ' '
0x180050af8 c6 84 24 33 03 00 00 20 mov     byte ptr [rsp+333h], 20h ; ' '
0x18002a130 c6 84 24 34 03 00 00 20 mov     byte ptr [rsp+334h], 20h ; ' '
0x1800184ed c6 84 24 35 03 00 00 20 mov     byte ptr [rsp+335h], 20h ; ' '
0x180011b40 c6 84 24 36 03 00 00 20 mov     byte ptr [rsp+336h], 20h ; ' '
0x180045588 c6 84 24 37 03 00 00 20 mov     byte ptr [rsp+337h], 20h ; ' '
0x1800319c2 c6 84 24 38 03 00 00 20 mov     byte ptr [rsp+338h], 20h ; ' '
0x180028072 c6 84 24 39 03 00 00 20 mov     byte ptr [rsp+339h], 20h ; ' '
0x180037c31 c6 84 24 3a 03 00 00 20 mov     byte ptr [rsp+33Ah], 20h ; ' '
0x180059e74 c6 84 24 3b 03 00 00 20 mov     byte ptr [rsp+33Bh], 20h ; ' '
0x18001e3ae c6 84 24 3c 03 00 00 20 mov     byte ptr [rsp+33Ch], 20h ; ' '
0x180036470 c6 84 24 3d 03 00 00 20 mov     byte ptr [rsp+33Dh], 20h ; ' '
0x180013a18 c6 84 24 3e 03 00 00 20 mov     byte ptr [rsp+33Eh], 20h ; ' '
0x180015584 c6 84 24 3f 03 00 00 20 mov     byte ptr [rsp+33Fh], 20h ; ' '
0x180003684 c6 84 24 40 03 00 00 20 mov     byte ptr [rsp+340h], 20h ; ' '
0x180065a86 c6 84 24 41 03 00 00 20 mov     [rsp+28h+arg_309], 20h ; ' '
0x1800528e6 c6 84 24 42 03 00 00 20 mov     [rsp+28h+arg_30A], 20h ; ' '
0x180043b3d c6 84 24 43 03 00 00 20 mov     [rsp+28h+arg_30B], 20h ; ' '
0x180040f88 c6 84 24 44 03 00 00 3a mov     [rsp+28h+arg_30C], 3Ah ; ':'
0x1800400d9 c6 84 24 45 03 00 00 20 mov     [rsp+28h+arg_30D], 20h ; ' '
0x180011f7d c6 84 24 46 03 00 00 3a mov     [rsp+28h+arg_30E], 3Ah ; ':'
0x180017c80 c6 84 24 47 03 00 00 20 mov     [rsp+28h+arg_30F], 20h ; ' '
0x18001dfd9 c6 84 24 48 03 00 00 22 mov     [rsp+28h+arg_310], 22h ; '"'
0x18004e2ae c6 84 24 49 03 00 00 2b mov     [rsp+28h+arg_311], 2Bh ; '+'
0x180033302 c6 84 24 4a 03 00 00 2e mov     [rsp+28h+arg_312], 2Eh ; '.'
0x180036056 c6 84 24 4b 03 00 00 20 mov     [rsp+28h+arg_313], 20h ; ' '
0x18001813d c6 84 24 4c 03 00 00 3b mov     [rsp+28h+arg_314], 3Bh ; ';'
0x18002d5a5 c6 84 24 4d 03 00 00 20 mov     [rsp+28h+arg_315], 20h ; ' '
0x18005cc74 c6 84 24 4e 03 00 00 0d mov     [rsp+28h+arg_316], 0Dh
0x1800606a5 c6 84 24 4f 03 00 00 0a mov     [rsp+28h+arg_317], 0Ah
0x180024d1c c6 84 24 50 03 00 00 20 mov     [rsp+28h+arg_318], 20h ; ' '
0x18005edc1 c6 84 24 51 03 00 00 3a mov     [rsp+28h+arg_319], 3Ah ; ':'
0x1800256e3 c6 84 24 52 03 00 00 20 mov     [rsp+28h+arg_31A], 20h ; ' '
0x1800543f2 c6 84 24 53 03 00 00 20 mov     [rsp+28h+arg_31B], 20h ; ' '
0x180050b4a c6 84 24 54 03 00 00 3b mov     [rsp+28h+arg_31C], 3Bh ; ';'
0x18003ee3a c6 84 24 55 03 00 00 20 mov     [rsp+28h+arg_31D], 20h ; ' '
0x18004636b c6 84 24 56 03 00 00 20 mov     [rsp+28h+arg_31E], 20h ; ' '
0x180054aa1 c6 84 24 57 03 00 00 20 mov     [rsp+28h+arg_31F], 20h ; ' '
0x180022830 c6 84 24 58 03 00 00 3b mov     [rsp+28h+arg_320], 3Bh ; ';'
0x1800193d1 c6 84 24 59 03 00 00 20 mov     [rsp+28h+arg_321], 20h ; ' '
0x180012501 c6 84 24 5a 03 00 00 3b mov     [rsp+28h+arg_322], 3Bh ; ';'
0x180027590 c6 84 24 5b 03 00 00 20 mov     [rsp+28h+arg_323], 20h ; ' '
0x180054d3e c6 84 24 5c 03 00 00 20 mov     [rsp+28h+arg_324], 20h ; ' '
0x18002bb15 c6 84 24 5d 03 00 00 20 mov     [rsp+28h+arg_325], 20h ; ' '
0x180038a44 c6 84 24 5e 03 00 00 20 mov     [rsp+28h+arg_326], 20h ; ' '
0x1800585af c6 84 24 5f 03 00 00 20 mov     [rsp+28h+arg_327], 20h ; ' '
0x180055bdf c6 84 24 60 03 00 00 20 mov     [rsp+28h+arg_328], 20h ; ' '
0x180039cbf c6 84 24 61 03 00 00 20 mov     [rsp+28h+arg_329], 20h ; ' '
0x18005ccf5 c6 84 24 62 03 00 00 20 mov     [rsp+28h+arg_32A], 20h ; ' '
0x18005fde5 c6 84 24 63 03 00 00 20 mov     [rsp+28h+arg_32B], 20h ; ' '
0x18001c9f7 c6 84 24 64 03 00 00 20 mov     [rsp+28h+arg_32C], 20h ; ' '
0x180038f97 c6 84 24 65 03 00 00 20 mov     [rsp+28h+arg_32D], 20h ; ' '
0x1800223dc c6 84 24 66 03 00 00 20 mov     [rsp+28h+arg_32E], 20h ; ' '
0x18003a029 c6 84 24 67 03 00 00 20 mov     [rsp+28h+arg_32F], 20h ; ' '
0x18000bccd c6 84 24 68 03 00 00 20 mov     [rsp+28h+arg_330], 20h ; ' '
0x18002fc78 c6 84 24 69 03 00 00 20 mov     [rsp+28h+arg_331], 20h ; ' '
0x180008627 c6 84 24 6a 03 00 00 20 mov     [rsp+28h+arg_332], 20h ; ' '
0x1800404fa c6 84 24 6b 03 00 00 20 mov     [rsp+28h+arg_333], 20h ; ' '
0x180013ac5 c6 84 24 6c 03 00 00 20 mov     [rsp+28h+arg_33C], 20h ; ' '
0x180016af9 c6 84 24 6d 03 00 00 20 mov     [rsp+28h+arg_33D], 20h ; ' '
0x180025044 c6 84 24 6e 03 00 00 20 mov     [rsp+28h+arg_33E], 20h ; ' '
0x18001b397 c6 84 24 6f 03 00 00 3a mov     [rsp+28h+arg_33F], 3Ah ; ':'
0x1800362bc c6 84 24 70 03 00 00 20 mov     [rsp+28h+arg_340], 20h ; ' '
0x18000882c c6 84 24 71 03 00 00 3b mov     [rsp+28h+arg_339], 3Bh ; ';'
0x1800037c4 c6 84 24 72 03 00 00 20 mov     [rsp+28h+arg_342], 20h ; ' '
0x18004293d c6 84 24 73 03 00 00 20 mov     [rsp+28h+arg_343], 20h ; ' '
0x18000f4d0 c6 84 24 74 03 00 00 3a mov     [rsp+arg_34C], 3Ah ; ':'
0x1800308ab c6 84 24 75 03 00 00 20 mov     [rsp+arg_34D], 20h ; ' '
0x18001956b c6 84 24 76 03 00 00 5c mov     [rsp+arg_34E], 5Ch ; '\'
0x180059198 c6 84 24 77 03 00 00 3a mov     [rsp+arg_34F], 3Ah ; ':'
0x18005e235 c6 84 24 78 03 00 00 20 mov     [rsp+arg_350], 20h ; ' '
0x18000128b c6 84 24 79 03 00 00 0d mov     [rsp+arg_351], 0Dh
0x180033978 c6 84 24 7a 03 00 00 0a mov     [rsp+arg_36A], 0Ah
0x1800569b6 c6 84 24 7b 03 00 00 20 mov     [rsp+arg_36B], 20h ; ' '
0x180058b55 c6 84 24 7c 03 00 00 3b mov     [rsp+arg_36C], 3Bh ; ';'
0x18000fd5a c6 84 24 7d 03 00 00 20 mov     [rsp+arg_36D], 20h ; ' '
0x180045ca4 c6 84 24 7e 03 00 00 20 mov     [rsp+arg_36E], 20h ; ' '
0x18004aa9c c6 84 24 7f 03 00 00 3a mov     [rsp+arg_36F], 3Ah ; ':'
0x180043019 c6 84 24 80 03 00 00 20 mov     [rsp+arg_370], 20h ; ' '
0x18005541a c6 84 24 81 03 00 00 20 mov     [rsp+arg_371], 20h ; ' '
0x180030b15 c6 84 24 82 03 00 00 20 mov     [rsp+arg_372], 20h ; ' '
0x18001ebce c6 84 24 83 03 00 00 3b mov     [rsp+arg_373], 3Bh ; ';'
0x18000f2d9 c6 84 24 84 03 00 00 20 mov     [rsp+arg_374], 20h ; ' '
0x18003c65e c6 84 24 85 03 00 00 3a mov     [rsp+arg_375], 3Ah ; ':'
0x180032098 c6 84 24 86 03 00 00 20 mov     [rsp+arg_376], 20h ; ' '
0x1800588dd c6 84 24 87 03 00 00 20 mov     [rsp+arg_377], 20h ; ' '
0x180064732 c6 84 24 88 03 00 00 20 mov     [rsp+arg_378], 20h ; ' '
0x18004bb4b c6 84 24 89 03 00 00 20 mov     [rsp+arg_379], 20h ; ' '
0x180055878 c6 84 24 8a 03 00 00 20 mov     [rsp+arg_37A], 20h ; ' '
0x18000eac4 c6 84 24 8b 03 00 00 20 mov     [rsp+arg_37B], 20h ; ' '
0x18005bd4e c6 84 24 8c 03 00 00 20 mov     [rsp+arg_37C], 20h ; ' '
0x1800576a9 c6 84 24 8d 03 00 00 20 mov     [rsp+arg_37D], 20h ; ' '
0x180053fed c6 84 24 8e 03 00 00 20 mov     [rsp+arg_37E], 20h ; ' '
0x180007718 c6 84 24 8f 03 00 00 20 mov     [rsp+arg_37F], 20h ; ' '
0x18002d4f8 c6 84 24 90 03 00 00 20 mov     [rsp+arg_380], 20h ; ' '
0x18001ca4a c6 84 24 91 03 00 00 20 mov     [rsp+arg_381], 20h ; ' '
0x18002a5c1 c6 84 24 92 03 00 00 20 mov     [rsp+arg_382], 20h ; ' '
0x180044d35 c6 84 24 93 03 00 00 20 mov     [rsp+arg_383], 20h ; ' '
0x180056916 c6 84 24 94 03 00 00 20 mov     [rsp+arg_384], 20h ; ' '
0x180033b93 c6 84 24 95 03 00 00 20 mov     [rsp+arg_385], 20h ; ' '
0x18001c852 c6 84 24 96 03 00 00 20 mov     [rsp+arg_386], 20h ; ' '
0x180059f61 c6 84 24 97 03 00 00 20 mov     [rsp+arg_387], 20h ; ' '
0x180050999 c6 84 24 98 03 00 00 20 mov     [rsp+arg_388], 20h ; ' '
0x18000ec8a c6 84 24 99 03 00 00 20 mov     [rsp+arg_389], 20h ; ' '
0x18004f144 c6 84 24 9a 03 00 00 3b mov     [rsp+arg_38A], 3Bh ; ';'
0x18002ae9c c6 84 24 9b 03 00 00 3a mov     [rsp+arg_38B], 3Ah ; ':'
0x180040404 c6 84 24 9c 03 00 00 20 mov     [rsp+arg_38C], 20h ; ' '
0x180030b66 c6 84 24 9d 03 00 00 20 mov     [rsp+arg_38D], 20h ; ' '
0x180048329 c6 84 24 9e 03 00 00 20 mov     [rsp+arg_38E], 20h ; ' '
0x18000de82 c6 84 24 9f 03 00 00 3b mov     [rsp+arg_38F], 3Bh ; ';'
0x180062047 c6 84 24 a0 03 00 00 20 mov     [rsp+arg_390], 20h ; ' '
0x180025b8e c6 84 24 a1 03 00 00 20 mov     [rsp+arg_391], 20h ; ' '
0x180031460 c6 84 24 a2 03 00 00 3a mov     [rsp+arg_392], 3Ah ; ':'
0x180061269 c6 84 24 a3 03 00 00 20 mov     [rsp+arg_393], 20h ; ' '
0x18005a8d8 c6 84 24 a4 03 00 00 0d mov     [rsp+arg_394], 0Dh
0x18004b3f4 c6 84 24 a5 03 00 00 0a mov     [rsp+arg_395], 0Ah
0x18003de2d c6 84 24 a6 03 00 00 3a mov     [rsp+arg_396], 3Ah ; ':'
0x18002be8d c6 84 24 a7 03 00 00 20 mov     [rsp+arg_397], 20h ; ' '
0x180035551 c6 84 24 a8 03 00 00 5c mov     [rsp+arg_398], 5Ch ; '\'
0x180027015 c6 84 24 a9 03 00 00 20 mov     [rsp+arg_399], 20h ; ' '
0x180048e6a c6 84 24 aa 03 00 00 20 mov     [rsp+arg_39A], 20h ; ' '
0x18002336a c6 84 24 ab 03 00 00 3b mov     [rsp+arg_39B], 3Bh ; ';'
0x180047d8e c6 84 24 ac 03 00 00 20 mov     [rsp+arg_39C], 20h ; ' '
0x1800034a2 c6 84 24 ad 03 00 00 20 mov     [rsp+arg_39D], 20h ; ' '
0x18004c168 c6 84 24 ae 03 00 00 3a mov     [rsp+arg_39E], 3Ah ; ':'
0x180057d83 c6 84 24 af 03 00 00 20 mov     [rsp+arg_39F], 20h ; ' '
0x18003c031 c6 84 24 b0 03 00 00 20 mov     [rsp+arg_3A0], 20h ; ' '
0x180037afb c6 84 24 b1 03 00 00 3b mov     [rsp+arg_3A1], 3Bh ; ';'
0x1800158a3 c6 84 24 b2 03 00 00 20 mov     [rsp+arg_3A2], 20h ; ' '
0x180065e8f c6 84 24 b3 03 00 00 20 mov     [rsp+arg_3A3], 20h ; ' '
0x180044db4 c6 84 24 b4 03 00 00 20 mov     [rsp+arg_3A4], 20h ; ' '
0x18001116a c6 84 24 b5 03 00 00 20 mov     [rsp+arg_3A5], 20h ; ' '
0x180023bc7 c6 84 24 b6 03 00 00 20 mov     [rsp+arg_3A6], 20h ; ' '
0x18000f784 c6 84 24 b7 03 00 00 20 mov     [rsp+arg_3A7], 20h ; ' '
0x18002e239 c6 84 24 b8 03 00 00 20 mov     [rsp+arg_3A8], 20h ; ' '
0x180055f69 c6 84 24 b9 03 00 00 20 mov     [rsp+arg_3A9], 20h ; ' '
0x180036bca c6 84 24 ba 03 00 00 20 mov     [rsp+arg_3AA], 20h ; ' '
0x1800333b8 c6 84 24 bb 03 00 00 20 mov     [rsp+arg_3AB], 20h ; ' '
0x18001b3ef c6 84 24 bc 03 00 00 20 mov     [rsp+arg_3AC], 20h ; ' '
0x18003c63a c6 84 24 bd 03 00 00 20 mov     [rsp+arg_3AD], 20h ; ' '
0x180056a48 c6 84 24 be 03 00 00 20 mov     [rsp+arg_3AE], 20h ; ' '
0x1800118b7 c6 84 24 bf 03 00 00 20 mov     [rsp+arg_3AF], 20h ; ' '
0x18002d008 c6 84 24 c0 03 00 00 20 mov     [rsp+arg_3B0], 20h ; ' '
0x18002d3ba c6 84 24 c1 03 00 00 20 mov     [rsp+arg_3B1], 20h ; ' '
0x18000f1d5 c6 84 24 c2 03 00 00 20 mov     [rsp+arg_3B2], 20h ; ' '
0x18002affa c6 84 24 c3 03 00 00 20 mov     [rsp+arg_3B3], 20h ; ' '
0x18000dc94 c6 84 24 c4 03 00 00 3a mov     [rsp+arg_3B4], 3Ah ; ':'
0x18001017a c6 84 24 c5 03 00 00 20 mov     [rsp+arg_3B5], 20h ; ' '
0x180051eb1 c6 84 24 c6 03 00 00 3b mov     [rsp+arg_3B6], 3Bh ; ';'
0x1800544a8 c6 84 24 c7 03 00 00 20 mov     [rsp+arg_3B7], 20h ; ' '
0x1800372a7 c6 84 24 c8 03 00 00 20 mov     [rsp+arg_3B8], 20h ; ' '
0x18002a750 c6 84 24 c9 03 00 00 2f mov     [rsp+arg_3B9], 2Fh ; '/'
0x18000f63c c6 84 24 ca 03 00 00 20 mov     [rsp+arg_3BA], 20h ; ' '
0x180023739 c6 84 24 cb 03 00 00 20 mov     [rsp+arg_3BB], 20h ; ' '
0x180022e8e c6 84 24 cc 03 00 00 3a mov     [rsp+arg_3BC], 3Ah ; ':'
0x1800441f7 c6 84 24 cd 03 00 00 3a mov     [rsp+arg_3BD], 3Ah ; ':'
0x18001992f c6 84 24 ce 03 00 00 20 mov     [rsp+arg_3BE], 20h ; ' '
0x18004e13e c6 84 24 cf 03 00 00 0d mov     [rsp+arg_3BF], 0Dh
0x180024229 c6 84 24 d0 03 00 00 0a mov     [rsp+arg_3C0], 0Ah
0x18006364f c6 84 24 d1 03 00 00 3b mov     [rsp+arg_3C1], 3Bh ; ';'
0x18004fef2 c6 84 24 d2 03 00 00 20 mov     [rsp+arg_3C2], 20h ; ' '
0x18002848f c6 84 24 d3 03 00 00 20 mov     [rsp+arg_3C3], 20h ; ' '
0x18004afee c6 84 24 d4 03 00 00 3b mov     [rsp+arg_3C4], 3Bh ; ';'
0x180035f98 c6 84 24 d5 03 00 00 20 mov     [rsp+arg_3C5], 20h ; ' '
0x18004bd67 c6 84 24 d6 03 00 00 3a mov     [rsp+arg_3C6], 3Ah ; ':'
0x18004ea4c c6 84 24 d7 03 00 00 20 mov     [rsp+arg_3C7], 20h ; ' '
0x180037549 c6 84 24 d8 03 00 00 20 mov     [rsp+arg_3C8], 20h ; ' '
0x180034b88 c6 84 24 d9 03 00 00 20 mov     [rsp+arg_3C9], 20h ; ' '
0x18001383a c6 84 24 da 03 00 00 3b mov     [rsp+arg_3CA], 3Bh ; ';'
0x18005392b c6 84 24 db 03 00 00 20 mov     [rsp+arg_3CB], 20h ; ' '
0x18001beb7 c6 84 24 dc 03 00 00 3a mov     [rsp+arg_3CC], 3Ah ; ':'
0x18005ab79 c6 84 24 dd 03 00 00 20 mov     [rsp+arg_3CD], 20h ; ' '
0x18001ddde c6 84 24 de 03 00 00 20 mov     [rsp+arg_3CE], 20h ; ' '
0x18000911c c6 84 24 df 03 00 00 20 mov     [rsp+arg_3CF], 20h ; ' '
0x1800422e9 c6 84 24 e0 03 00 00 20 mov     [rsp+arg_3D0], 20h ; ' '
0x18005e284 c6 84 24 e1 03 00 00 20 mov     [rsp+arg_3D1], 20h ; ' '
0x18001a7e4 c6 84 24 e2 03 00 00 20 mov     [rsp+arg_3D2], 20h ; ' '
0x180002038 c6 84 24 e3 03 00 00 20 mov     [rsp+arg_3D3], 20h ; ' '
0x18003d8eb c6 84 24 e4 03 00 00 20 mov     [rsp+arg_3D4], 20h ; ' '
0x18004533e c6 84 24 e5 03 00 00 20 mov     [rsp+arg_3D5], 20h ; ' '
0x18002459b c6 84 24 e6 03 00 00 20 mov     [rsp+arg_3D6], 20h ; ' '
0x180058360 c6 84 24 e7 03 00 00 20 mov     [rsp+arg_3D7], 20h ; ' '
0x180042064 c6 84 24 e8 03 00 00 20 mov     [rsp+arg_3D8], 20h ; ' '
0x1800488a9 c6 84 24 e9 03 00 00 20 mov     [rsp+arg_3D9], 20h ; ' '
0x18005d273 c6 84 24 ea 03 00 00 20 mov     [rsp+arg_3DA], 20h ; ' '
0x18005d7c9 c6 84 24 eb 03 00 00 20 mov     [rsp+arg_3DB], 20h ; ' '
0x18000b480 c6 84 24 ec 03 00 00 20 mov     [rsp+arg_3DC], 20h ; ' '
0x18004c080 c6 84 24 ed 03 00 00 20 mov     [rsp+arg_3DD], 20h ; ' '
0x18002f351 c6 84 24 ee 03 00 00 20 mov     [rsp+arg_3DE], 20h ; ' '
0x180062a19 c6 84 24 ef 03 00 00 3b mov     [rsp+arg_3DF], 3Bh ; ';'
0x18000b8fe c6 84 24 f0 03 00 00 20 mov     [rsp+arg_3E0], 20h ; ' '
0x18000ddfa c6 84 24 f1 03 00 00 20 mov     [rsp+arg_3E1], 20h ; ' '
0x18003684c c6 84 24 f2 03 00 00 20 mov     [rsp+arg_3E2], 20h ; ' '
0x18003a85d c6 84 24 f3 03 00 00 3a mov     [rsp+arg_3E3], 3Ah ; ':'
0x18003bad1 c6 84 24 f4 03 00 00 20 mov     [rsp+arg_3E4], 20h ; ' '
0x180039232 c6 84 24 f5 03 00 00 20 mov     [rsp+arg_3E5], 20h ; ' '
0x180050d13 c6 84 24 f6 03 00 00 20 mov     [rsp+arg_3E6], 20h ; ' '
0x180049af2 c6 84 24 f7 03 00 00 3b mov     [rsp+arg_3E7], 3Bh ; ';'
0x18006272a c6 84 24 f8 03 00 00 3a mov     [rsp+arg_3E8], 3Ah ; ':'
0x180022114 c6 84 24 f9 03 00 00 20 mov     [rsp+arg_3E9], 20h ; ' '
0x180002491 c6 84 24 fa 03 00 00 0d mov     [rsp+arg_3EA], 0Dh
0x1800637dd c6 84 24 fb 03 00 00 0a mov     [rsp+arg_3EB], 0Ah
0x180051c86 c6 84 24 fc 03 00 00 3a mov     [rsp+arg_3EC], 3Ah ; ':'
0x18004440c c6 84 24 fd 03 00 00 20 mov     [rsp+arg_3ED], 20h ; ' '
0x18004a7bb c6 84 24 fe 03 00 00 20 mov     [rsp+arg_3EE], 20h ; ' '
0x180001646 c6 84 24 ff 03 00 00 3a mov     [rsp+arg_3EF], 3Ah ; ':'
0x180028cc7 c6 84 24 00 04 00 00 20 mov     [rsp+arg_3F0], 20h ; ' '
0x180048e95 c6 84 24 01 04 00 00 20 mov     [rsp+arg_3F1], 20h ; ' '
0x18005297d c6 84 24 02 04 00 00 3b mov     [rsp+arg_3F2], 3Bh ; ';'
0x18005c85d c6 84 24 03 04 00 00 20 mov     [rsp+arg_3F3], 20h ; ' '
0x18005da4a c6 84 24 04 04 00 00 20 mov     [rsp+arg_3F4], 20h ; ' '
0x18001f902 c6 84 24 05 04 00 00 3a mov     [rsp+arg_3F5], 3Ah ; ':'
0x180055c80 c6 84 24 06 04 00 00 20 mov     [rsp+arg_3F6], 20h ; ' '
0x18005a5fe c6 84 24 07 04 00 00 20 mov     [rsp+arg_3F7], 20h ; ' '
0x180060826 c6 84 24 08 04 00 00 3b mov     [rsp+arg_3F8], 3Bh ; ';'
0x18000c1ae c6 84 24 09 04 00 00 20 mov     [rsp+arg_3F9], 20h ; ' '
0x180060698 c6 84 24 0a 04 00 00 20 mov     [rsp+arg_3FA], 20h ; ' '
0x180057a7e c6 84 24 0b 04 00 00 20 mov     [rsp+arg_3FB], 20h ; ' '
0x18001ef25 c6 84 24 0c 04 00 00 20 mov     [rsp+arg_3FC], 20h ; ' '
0x180063fda c6 84 24 0d 04 00 00 20 mov     [rsp+arg_3FD], 20h ; ' '
0x18001273b c6 84 24 0e 04 00 00 20 mov     [rsp+arg_3FE], 20h ; ' '
0x1800468d5 c6 84 24 0f 04 00 00 20 mov     [rsp+arg_3FF], 20h ; ' '
0x180038614 c6 84 24 10 04 00 00 20 mov     [rsp+arg_400], 20h ; ' '
0x18005a943 c6 84 24 11 04 00 00 20 mov     [rsp+arg_401], 20h ; ' '
0x18004743d c6 84 24 12 04 00 00 20 mov     [rsp+arg_402], 20h ; ' '
0x18003299e c6 84 24 13 04 00 00 20 mov     [rsp+arg_403], 20h ; ' '
0x180023603 c6 84 24 14 04 00 00 20 mov     [rsp+arg_404], 20h ; ' '
0x180039d01 c6 84 24 15 04 00 00 20 mov     [rsp+arg_405], 20h ; ' '
0x180021e51 c6 84 24 16 04 00 00 20 mov     [rsp+arg_406], 20h ; ' '
0x180037335 c6 84 24 17 04 00 00 20 mov     [rsp+arg_407], 20h ; ' '
0x18003b7d4 c6 84 24 18 04 00 00 20 mov     [rsp+arg_408], 20h ; ' '
0x180030795 c6 84 24 19 04 00 00 3a mov     [rsp+arg_409], 3Ah ; ':'
0x180025e5d c6 84 24 1a 04 00 00 20 mov     [rsp+arg_40A], 20h ; ' '
0x180023c04 c6 84 24 1b 04 00 00 3a mov     [rsp+arg_40B], 3Ah ; ':'
0x1800305fc c6 84 24 1c 04 00 00 20 mov     [rsp+arg_40C], 20h ; ' '
0x180001b57 c6 84 24 1d 04 00 00 20 mov     [rsp+arg_40D], 20h ; ' '
0x18000f597 c6 84 24 1e 04 00 00 3b mov     [rsp+arg_40E], 3Bh ; ';'
0x18002d420 c6 84 24 1f 04 00 00 20 mov     [rsp+arg_40F], 20h ; ' '
0x18000bd30 c6 84 24 20 04 00 00 20 mov     [rsp+arg_410], 20h ; ' '
0x180051dda c6 84 24 21 04 00 00 3a mov     [rsp+arg_411], 3Ah ; ':'
0x180022cfb c6 84 24 22 04 00 00 20 mov     [rsp+arg_412], 20h ; ' '
0x18001c1ed c6 84 24 23 04 00 00 3b mov     [rsp+arg_413], 3Bh ; ';'
0x18004b09e c6 84 24 24 04 00 00 20 mov     [rsp+arg_414], 20h ; ' '
0x1800065ad c6 84 24 25 04 00 00 0d mov     [rsp+arg_415], 0Dh
0x18000d229 c6 84 24 26 04 00 00 0a mov     [rsp+arg_416], 0Ah
0x18000db2b c6 84 24 27 04 00 00 3b mov     [rsp+arg_417], 3Bh ; ';'
0x180004cc0 c6 84 24 28 04 00 00 5c mov     byte ptr [rsp+428h], 5Ch ; '\'
0x180005179 c6 84 24 29 04 00 00 20 mov     byte ptr [rsp+429h], 20h ; ' '
0x180047f65 c6 84 24 2a 04 00 00 20 mov     byte ptr [rsp+42Ah], 20h ; ' '
0x180021f78 c6 84 24 2b 04 00 00 20 mov     byte ptr [rsp+42Bh], 20h ; ' '
0x18001df16 c6 84 24 2c 04 00 00 20 mov     byte ptr [rsp+42Ch], 20h ; ' '
0x18006557a c6 84 24 2d 04 00 00 3a mov     byte ptr [rsp+42Dh], 3Ah ; ':'
0x180002fb2 c6 84 24 2e 04 00 00 20 mov     byte ptr [rsp+42Eh], 20h ; ' '
0x18000c33c c6 84 24 2f 04 00 00 20 mov     byte ptr [rsp+42Fh], 20h ; ' '
0x180029e05 c6 84 24 30 04 00 00 20 mov     byte ptr [rsp+430h], 20h ; ' '
0x1800512b4 c6 84 24 31 04 00 00 3b mov     byte ptr [rsp+431h], 3Bh ; ';'
0x1800310ab c6 84 24 32 04 00 00 20 mov     byte ptr [rsp+432h], 20h ; ' '
0x180033f75 c6 84 24 33 04 00 00 3a mov     byte ptr [rsp+433h], 3Ah ; ':'
0x180064d17 c6 84 24 34 04 00 00 20 mov     byte ptr [rsp+434h], 20h ; ' '
0x180020e30 c6 84 24 35 04 00 00 20 mov     byte ptr [rsp+435h], 20h ; ' '
0x1800200a4 c6 84 24 36 04 00 00 20 mov     byte ptr [rsp+436h], 20h ; ' '
0x180016147 c6 84 24 37 04 00 00 20 mov     byte ptr [rsp+437h], 20h ; ' '
0x180039780 c6 84 24 38 04 00 00 20 mov     byte ptr [rsp+438h], 20h ; ' '
0x180045fdd c6 84 24 39 04 00 00 20 mov     byte ptr [rsp+439h], 20h ; ' '
0x1800377c0 c6 84 24 3a 04 00 00 20 mov     byte ptr [rsp+43Ah], 20h ; ' '
0x18006177e c6 84 24 3b 04 00 00 20 mov     byte ptr [rsp+43Bh], 20h ; ' '
0x18002c4b8 c6 84 24 3c 04 00 00 20 mov     byte ptr [rsp+43Ch], 20h ; ' '
0x18003284f c6 84 24 3d 04 00 00 20 mov     [rsp+arg_42D], 20h ; ' '
0x18004deeb c6 84 24 3e 04 00 00 20 mov     [rsp+arg_42E], 20h ; ' '
0x18006342f c6 84 24 3f 04 00 00 20 mov     [rsp+arg_42F], 20h ; ' '
0x180009f00 c6 84 24 40 04 00 00 20 mov     [rsp+arg_438], 20h ; ' '
0x180014b30 c6 84 24 41 04 00 00 20 mov     [rsp+arg_439], 20h ; ' '
0x1800173ac c6 84 24 42 04 00 00 20 mov     [rsp+arg_43A], 20h ; ' '
0x18003f003 c6 84 24 43 04 00 00 20 mov     [rsp+arg_433], 20h ; ' '
0x1800223fb c6 84 24 44 04 00 00 3b mov     [rsp+arg_434], 3Bh ; ';'
0x180052530 c6 84 24 45 04 00 00 20 mov     [rsp+arg_435], 20h ; ' '
0x180042189 c6 84 24 46 04 00 00 3b mov     [rsp+arg_436], 3Bh ; ';'
0x18005438b c6 84 24 47 04 00 00 20 mov     [rsp+arg_437], 20h ; ' '
0x180059ce3 c6 84 24 48 04 00 00 20 mov     byte ptr [rsp+448h], 20h ; ' '
0x180008a2c c6 84 24 49 04 00 00 20 mov     [rsp+arg_441], 20h ; ' '
0x18003b0a2 c6 84 24 4a 04 00 00 20 mov     byte ptr [rsp+44Ah], 20h ; ' '
0x1800435a5 c6 84 24 4b 04 00 00 20 mov     [rsp+arg_43B], 20h ; ' '
0x18003da41 c6 84 24 4c 04 00 00 3b mov     [rsp+arg_43C], 3Bh ; ';'
0x18003cca7 c6 84 24 4d 04 00 00 20 mov     [rsp+arg_43D], 20h ; ' '
0x180055a39 c6 84 24 4e 04 00 00 3b mov     [rsp+arg_43E], 3Bh ; ';'
0x180016a0b c6 84 24 4f 04 00 00 20 mov     [rsp+arg_447], 20h ; ' '
0x18002d9f4 c6 84 24 50 04 00 00 0d mov     [rsp+arg_440], 0Dh
0x1800309d0 c6 84 24 51 04 00 00 0a mov     byte ptr [rsp+451h], 0Ah
0x18003f1e9 c6 84 24 52 04 00 00 3a mov     [rsp+arg_442], 3Ah ; ':'
0x18003c18b c6 84 24 53 04 00 00 20 mov     [rsp+arg_443], 20h ; ' '
0x18000a75d c6 84 24 54 04 00 00 60 mov     [rsp+arg_44C], 60h ; '`'
0x1800133d5 c6 84 24 55 04 00 00 2e mov     [rsp+arg_44D], 2Eh ; '.'
0x18005d1d5 c6 84 24 56 04 00 00 22 mov     [rsp+arg_446], 22h ; '"'
0x18002e54a c6 84 24 57 04 00 00 2d mov     byte ptr [rsp+457h], 2Dh ; '-'
0x1800263e0 c6 84 24 58 04 00 00 3b mov     [rsp+arg_448], 3Bh ; ';'
0x180022c71 c6 84 24 59 04 00 00 20 mov     [rsp+arg_449], 20h ; ' '
0x180050e58 c6 84 24 5a 04 00 00 20 mov     [rsp+arg_44A], 20h ; ' '
0x18001cb3f c6 84 24 5b 04 00 00 20 mov     [rsp+arg_453], 20h ; ' '
0x180004718 c6 84 24 5c 04 00 00 3a mov     byte ptr [rsp+45Ch], 3Ah ; ':'
0x18001573e c6 84 24 5d 04 00 00 20 mov     byte ptr [rsp+45Dh], 20h ; ' '
0x180034cf3 c6 84 24 5e 04 00 00 20 mov     byte ptr [rsp+45Eh], 20h ; ' '
0x1800086d3 c6 84 24 5f 04 00 00 3b mov     byte ptr [rsp+45Fh], 3Bh ; ';'
0x18002e3e9 c6 84 24 60 04 00 00 20 mov     byte ptr [rsp+460h], 20h ; ' '
0x1800247ab c6 84 24 61 04 00 00 20 mov     byte ptr [rsp+461h], 20h ; ' '
0x18002439e c6 84 24 62 04 00 00 20 mov     byte ptr [rsp+462h], 20h ; ' '
0x18001cb15 c6 84 24 63 04 00 00 20 mov     byte ptr [rsp+463h], 20h ; ' '
0x18005b8c5 c6 84 24 64 04 00 00 20 mov     byte ptr [rsp+464h], 20h ; ' '
0x18001eb63 c6 84 24 65 04 00 00 20 mov     byte ptr [rsp+465h], 20h ; ' '
0x180005daf c6 84 24 66 04 00 00 20 mov     byte ptr [rsp+466h], 20h ; ' '
0x18005a9c1 c6 84 24 67 04 00 00 20 mov     byte ptr [rsp+467h], 20h ; ' '
0x180013df1 c6 84 24 68 04 00 00 20 mov     byte ptr [rsp+468h], 20h ; ' '
0x18001ac91 c6 84 24 69 04 00 00 20 mov     byte ptr [rsp+469h], 20h ; ' '
0x180047fb2 c6 84 24 6a 04 00 00 20 mov     byte ptr [rsp+46Ah], 20h ; ' '
0x18005ae01 c6 84 24 6b 04 00 00 20 mov     byte ptr [rsp+46Bh], 20h ; ' '
0x18002728e c6 84 24 6c 04 00 00 20 mov     byte ptr [rsp+46Ch], 20h ; ' '
0x180036c87 c6 84 24 6d 04 00 00 20 mov     byte ptr [rsp+46Dh], 20h ; ' '
0x18005429e c6 84 24 6e 04 00 00 3a mov     byte ptr [rsp+46Eh], 3Ah ; ':'
0x18001038c c6 84 24 6f 04 00 00 20 mov     byte ptr [rsp+46Fh], 20h ; ' '
0x180007e70 c6 84 24 70 04 00 00 20 mov     byte ptr [rsp+470h], 20h ; ' '
0x18000ad6a c6 84 24 71 04 00 00 3b mov     byte ptr [rsp+471h], 3Bh ; ';'
0x18002eadd c6 84 24 72 04 00 00 20 mov     byte ptr [rsp+472h], 20h ; ' '
0x18002aa1f c6 84 24 73 04 00 00 20 mov     byte ptr [rsp+473h], 20h ; ' '
0x18000a9d2 c6 84 24 74 04 00 00 20 mov     byte ptr [rsp+474h], 20h ; ' '
0x180048e0e c6 84 24 75 04 00 00 20 mov     byte ptr [rsp+475h], 20h ; ' '
0x18003291c c6 84 24 76 04 00 00 2f mov     byte ptr [rsp+476h], 2Fh ; '/'
0x18005e929 c6 84 24 77 04 00 00 20 mov     byte ptr [rsp+477h], 20h ; ' '
0x18002a280 c6 84 24 78 04 00 00 20 mov     byte ptr [rsp+478h], 20h ; ' '
0x180019a8d c6 84 24 79 04 00 00 3b mov     byte ptr [rsp+479h], 3Bh ; ';'
0x18003e0d5 c6 84 24 7a 04 00 00 20 mov     byte ptr [rsp+47Ah], 20h ; ' '
0x18003452d c6 84 24 7b 04 00 00 0d mov     byte ptr [rsp+47Bh], 0Dh
0x18002ee4b c6 84 24 7c 04 00 00 0a mov     byte ptr [rsp+47Ch], 0Ah
0x1800203f6 c6 84 24 7d 04 00 00 20 mov     byte ptr [rsp+47Dh], 20h ; ' '
0x180037eca c6 84 24 7e 04 00 00 3b mov     byte ptr [rsp+47Eh], 3Bh ; ';'
0x180003a0b c6 84 24 7f 04 00 00 20 mov     byte ptr [rsp+47Fh], 20h ; ' '
0x18005e68f c6 84 24 80 04 00 00 20 mov     byte ptr [rsp+480h], 20h ; ' '
0x180019bc5 c6 84 24 81 04 00 00 20 mov     byte ptr [rsp+481h], 20h ; ' '
0x18003e607 c6 84 24 82 04 00 00 20 mov     byte ptr [rsp+482h], 20h ; ' '
0x1800511c3 c6 84 24 83 04 00 00 2d mov     byte ptr [rsp+483h], 2Dh ; '-'
0x1800304f7 c6 84 24 84 04 00 00 3a mov     byte ptr [rsp+484h], 3Ah ; ':'
0x180033992 c6 84 24 85 04 00 00 20 mov     byte ptr [rsp+485h], 20h ; ' '
0x180056d6c c6 84 24 86 04 00 00 20 mov     byte ptr [rsp+486h], 20h ; ' '
0x1800018d1 c6 84 24 87 04 00 00 20 mov     byte ptr [rsp+487h], 20h ; ' '
0x180022920 c6 84 24 88 04 00 00 3b mov     byte ptr [rsp+488h], 3Bh ; ';'
0x180009e5a c6 84 24 89 04 00 00 20 mov     byte ptr [rsp+489h], 20h ; ' '
0x180029210 c6 84 24 8a 04 00 00 3a mov     byte ptr [rsp+48Ah], 3Ah ; ':'
0x18001cd40 c6 84 24 8b 04 00 00 20 mov     byte ptr [rsp+48Bh], 20h ; ' '
0x1800209e7 c6 84 24 8c 04 00 00 20 mov     byte ptr [rsp+48Ch], 20h ; ' '
0x18001bc05 c6 84 24 8d 04 00 00 20 mov     byte ptr [rsp+48Dh], 20h ; ' '
0x180034a5f c6 84 24 8e 04 00 00 20 mov     byte ptr [rsp+48Eh], 20h ; ' '
0x18000a051 c6 84 24 8f 04 00 00 20 mov     byte ptr [rsp+48Fh], 20h ; ' '
0x180046c82 c6 84 24 90 04 00 00 20 mov     byte ptr [rsp+490h], 20h ; ' '
0x180041856 c6 84 24 91 04 00 00 20 mov     byte ptr [rsp+491h], 20h ; ' '
0x180042960 c6 84 24 92 04 00 00 20 mov     byte ptr [rsp+492h], 20h ; ' '
0x18004aa66 c6 84 24 93 04 00 00 20 mov     byte ptr [rsp+493h], 20h ; ' '
0x180020bfe c6 84 24 94 04 00 00 20 mov     byte ptr [rsp+494h], 20h ; ' '
0x18004c778 c6 84 24 95 04 00 00 20 mov     byte ptr [rsp+495h], 20h ; ' '
0x180028a3d c6 84 24 96 04 00 00 20 mov     byte ptr [rsp+496h], 20h ; ' '
0x180055711 c6 84 24 97 04 00 00 20 mov     byte ptr [rsp+497h], 20h ; ' '
0x180017011 c6 84 24 98 04 00 00 20 mov     byte ptr [rsp+498h], 20h ; ' '
0x1800129d9 c6 84 24 99 04 00 00 3b mov     byte ptr [rsp+499h], 3Bh ; ';'
0x180007a4c c6 84 24 9a 04 00 00 20 mov     byte ptr [rsp+49Ah], 20h ; ' '
0x1800480f1 c6 84 24 9b 04 00 00 20 mov     byte ptr [rsp+49Bh], 20h ; ' '
0x180007501 c6 84 24 9c 04 00 00 3a mov     byte ptr [rsp+49Ch], 3Ah ; ':'
0x180017fe1 c6 84 24 9d 04 00 00 20 mov     byte ptr [rsp+49Dh], 20h ; ' '
0x18005dc00 c6 84 24 9e 04 00 00 2e mov     byte ptr [rsp+49Eh], 2Eh ; '.'
0x1800308ee c6 84 24 9f 04 00 00 2d mov     byte ptr [rsp+49Fh], 2Dh ; '-'
0x18004b4a2 c6 84 24 a0 04 00 00 22 mov     byte ptr [rsp+4A0h], 22h ; '"'
0x180014d04 c6 84 24 a1 04 00 00 20 mov     byte ptr [rsp+4A1h], 20h ; ' '
0x180008847 c6 84 24 a2 04 00 00 20 mov     byte ptr [rsp+4A2h], 20h ; ' '
0x180053288 c6 84 24 a3 04 00 00 20 mov     byte ptr [rsp+4A3h], 20h ; ' '
0x18002a24d c6 84 24 a4 04 00 00 3a mov     byte ptr [rsp+4A4h], 3Ah ; ':'
0x18002d01a c6 84 24 a5 04 00 00 20 mov     byte ptr [rsp+4A5h], 20h ; ' '
0x180033cac c6 84 24 a6 04 00 00 0d mov     byte ptr [rsp+4A6h], 0Dh
0x180018e57 c6 84 24 a7 04 00 00 0a mov     byte ptr [rsp+4A7h], 0Ah
0x180041ea3 c6 84 24 a8 04 00 00 20 mov     byte ptr [rsp+4A8h], 20h ; ' '
0x180001d0f c6 84 24 a9 04 00 00 3a mov     byte ptr [rsp+4A9h], 3Ah ; ':'
0x18002dbf2 c6 84 24 aa 04 00 00 5c mov     byte ptr [rsp+4AAh], 5Ch ; '\'
0x180043fef c6 84 24 ab 04 00 00 20 mov     byte ptr [rsp+4ABh], 20h ; ' '
0x180051af8 c6 84 24 ac 04 00 00 20 mov     byte ptr [rsp+4ACh], 20h ; ' '
0x18001a58a c6 84 24 ad 04 00 00 20 mov     byte ptr [rsp+4ADh], 20h ; ' '
0x18005b3f8 c6 84 24 ae 04 00 00 20 mov     byte ptr [rsp+4AEh], 20h ; ' '
0x1800459ac c6 84 24 af 04 00 00 20 mov     byte ptr [rsp+4AFh], 20h ; ' '
0x180001d9b c6 84 24 b0 04 00 00 5c mov     byte ptr [rsp+4B0h], 5Ch ; '\'
0x18002ea2d c6 84 24 b1 04 00 00 20 mov     byte ptr [rsp+4B1h], 20h ; ' '
0x18002273b c6 84 24 b2 04 00 00 20 mov     byte ptr [rsp+4B2h], 20h ; ' '
0x180040da1 c6 84 24 b3 04 00 00 3a mov     byte ptr [rsp+4B3h], 3Ah ; ':'
0x18004d10b c6 84 24 b4 04 00 00 20 mov     byte ptr [rsp+4B4h], 20h ; ' '
0x18000ccbc c6 84 24 b5 04 00 00 20 mov     byte ptr [rsp+4B5h], 20h ; ' '
0x180021487 c6 84 24 b6 04 00 00 3b mov     byte ptr [rsp+4B6h], 3Bh ; ';'
0x18005dfb3 c6 84 24 b7 04 00 00 20 mov     byte ptr [rsp+4B7h], 20h ; ' '
0x180022493 c6 84 24 b8 04 00 00 20 mov     byte ptr [rsp+4B8h], 20h ; ' '
0x18000344b c6 84 24 b9 04 00 00 20 mov     byte ptr [rsp+4B9h], 20h ; ' '
0x18000cb61 c6 84 24 ba 04 00 00 20 mov     byte ptr [rsp+4BAh], 20h ; ' '
0x18000e9eb c6 84 24 bb 04 00 00 20 mov     byte ptr [rsp+4BBh], 20h ; ' '
0x180059580 c6 84 24 bc 04 00 00 20 mov     byte ptr [rsp+4BCh], 20h ; ' '
0x180048778 c6 84 24 bd 04 00 00 20 mov     byte ptr [rsp+4BDh], 20h ; ' '
0x18005dbba c6 84 24 be 04 00 00 20 mov     byte ptr [rsp+4BEh], 20h ; ' '
0x18003e306 c6 84 24 bf 04 00 00 20 mov     byte ptr [rsp+4BFh], 20h ; ' '
0x180044856 c6 84 24 c0 04 00 00 20 mov     byte ptr [rsp+4C0h], 20h ; ' '
0x18003e08b c6 84 24 c1 04 00 00 20 mov     byte ptr [rsp+4C1h], 20h ; ' '
0x18000d4a1 c6 84 24 c2 04 00 00 20 mov     byte ptr [rsp+4C2h], 20h ; ' '
0x180026e05 c6 84 24 c3 04 00 00 3a mov     byte ptr [rsp+4C3h], 3Ah ; ':'
0x1800111dd c6 84 24 c4 04 00 00 20 mov     byte ptr [rsp+4C4h], 20h ; ' '
0x18004f6fd c6 84 24 c5 04 00 00 5c mov     byte ptr [rsp+4C5h], 5Ch ; '\'
0x180031d68 c6 84 24 c6 04 00 00 2e mov     byte ptr [rsp+4C6h], 2Eh ; '.'
0x180033ef9 c6 84 24 c7 04 00 00 2d mov     byte ptr [rsp+4C7h], 2Dh ; '-'
0x180051316 c6 84 24 c8 04 00 00 22 mov     byte ptr [rsp+4C8h], 22h ; '"'
0x18002bab8 c6 84 24 c9 04 00 00 20 mov     byte ptr [rsp+4C9h], 20h ; ' '
0x18002255e c6 84 24 ca 04 00 00 20 mov     byte ptr [rsp+4CAh], 20h ; ' '
0x180047380 c6 84 24 cb 04 00 00 20 mov     byte ptr [rsp+4CBh], 20h ; ' '
0x18005dbd9 c6 84 24 cc 04 00 00 20 mov     byte ptr [rsp+4CCh], 20h ; ' '
0x180005dec c6 84 24 cd 04 00 00 20 mov     byte ptr [rsp+4CDh], 20h ; ' '
0x18005046b c6 84 24 ce 04 00 00 20 mov     byte ptr [rsp+4CEh], 20h ; ' '
0x18000d954 c6 84 24 cf 04 00 00 3a mov     byte ptr [rsp+4CFh], 3Ah ; ':'
0x18005aa41 c6 84 24 d0 04 00 00 20 mov     byte ptr [rsp+4D0h], 20h ; ' '
0x18004133f c6 84 24 d1 04 00 00 0d mov     byte ptr [rsp+4D1h], 0Dh
0x18000b0ba c6 84 24 d2 04 00 00 0a mov     byte ptr [rsp+4D2h], 0Ah
0x180016e31 c6 84 24 d3 04 00 00 20 mov     byte ptr [rsp+4D3h], 20h ; ' '
0x180050d45 c6 84 24 d4 04 00 00 20 mov     byte ptr [rsp+4D4h], 20h ; ' '
0x180038979 c6 84 24 d5 04 00 00 3b mov     byte ptr [rsp+4D5h], 3Bh ; ';'
0x180052ebe c6 84 24 d6 04 00 00 60 mov     byte ptr [rsp+4D6h], 60h ; '`'
0x18001002a c6 84 24 d7 04 00 00 2e mov     byte ptr [rsp+4D7h], 2Eh ; '.'
0x180031e21 c6 84 24 d8 04 00 00 20 mov     byte ptr [rsp+4D8h], 20h ; ' '
0x18002b83e c6 84 24 d9 04 00 00 20 mov     byte ptr [rsp+4D9h], 20h ; ' '
0x180041a76 c6 84 24 da 04 00 00 20 mov     byte ptr [rsp+4DAh], 20h ; ' '
0x18005b9ef c6 84 24 db 04 00 00 20 mov     byte ptr [rsp+4DBh], 20h ; ' '
0x180035dd1 c6 84 24 dc 04 00 00 5c mov     byte ptr [rsp+4DCh], 5Ch ; '\'
0x18003c050 c6 84 24 dd 04 00 00 20 mov     byte ptr [rsp+4DDh], 20h ; ' '
0x18001ea17 c6 84 24 de 04 00 00 20 mov     byte ptr [rsp+4DEh], 20h ; ' '
0x180049249 c6 84 24 df 04 00 00 3b mov     byte ptr [rsp+4DFh], 3Bh ; ';'
0x180032b5a c6 84 24 e0 04 00 00 20 mov     byte ptr [rsp+4E0h], 20h ; ' '
0x18004db17 c6 84 24 e1 04 00 00 3a mov     byte ptr [rsp+4E1h], 3Ah ; ':'
0x18004c149 c6 84 24 e2 04 00 00 20 mov     byte ptr [rsp+4E2h], 20h ; ' '
0x180008a48 c6 84 24 e3 04 00 00 20 mov     byte ptr [rsp+4E3h], 20h ; ' '
0x180028e1b c6 84 24 e4 04 00 00 20 mov     byte ptr [rsp+4E4h], 20h ; ' '
0x1800122c7 c6 84 24 e5 04 00 00 20 mov     byte ptr [rsp+4E5h], 20h ; ' '
0x18004407f c6 84 24 e6 04 00 00 20 mov     byte ptr [rsp+4E6h], 20h ; ' '
0x18001e038 c6 84 24 e7 04 00 00 20 mov     byte ptr [rsp+4E7h], 20h ; ' '
0x18000c232 c6 84 24 e8 04 00 00 20 mov     byte ptr [rsp+4E8h], 20h ; ' '
0x180010e3d c6 84 24 e9 04 00 00 20 mov     byte ptr [rsp+4E9h], 20h ; ' '
0x180031918 c6 84 24 ea 04 00 00 20 mov     byte ptr [rsp+4EAh], 20h ; ' '
0x18005d45b c6 84 24 eb 04 00 00 20 mov     [rsp+arg_4DB], 20h ; ' '
0x180049260 c6 84 24 ec 04 00 00 20 mov     [rsp+arg_4E4], 20h ; ' '
0x180041c31 c6 84 24 ed 04 00 00 20 mov     [rsp+arg_4E5], 20h ; ' '
0x18003c5ee c6 84 24 ee 04 00 00 3b mov     [rsp+arg_4E6], 3Bh ; ';'
0x18000b24b c6 84 24 ef 04 00 00 2e mov     [rsp+arg_4E7], 2Eh ; '.'
0x18003c4d5 c6 84 24 f0 04 00 00 27 mov     [rsp+arg_4E8], 27h ; '''
0x18004e1e3 c6 84 24 f1 04 00 00 5f mov     [rsp+arg_4E9], 5Fh ; '_'
0x1800403eb c6 84 24 f2 04 00 00 2e mov     [rsp+arg_4EA], 2Eh ; '.'
0x18005fa02 c6 84 24 f3 04 00 00 2e mov     [rsp+arg_4E3], 2Eh ; '.'
0x18003a71f c6 84 24 f4 04 00 00 2d mov     [rsp+arg_4EC], 2Dh ; '-'
0x1800307bb c6 84 24 f5 04 00 00 2d mov     [rsp+arg_4ED], 2Dh ; '-'
0x180053c9b c6 84 24 f6 04 00 00 20 mov     byte ptr [rsp+4F6h], 20h ; ' '
0x180016bcf c6 84 24 f7 04 00 00 20 mov     [rsp+arg_4EF], 20h ; ' '
0x18001e5a4 c6 84 24 f8 04 00 00 2f mov     [rsp+arg_4F0], 2Fh ; '/'
0x180005ce9 c6 84 24 f9 04 00 00 20 mov     [rsp+arg_4F1], 20h ; ' '
0x180044794 c6 84 24 fa 04 00 00 3b mov     [rsp+arg_4F2], 3Bh ; ';'
0x18006145e c6 84 24 fb 04 00 00 20 mov     [rsp+arg_4EB], 20h ; ' '
0x18001f3d9 c6 84 24 fc 04 00 00 0d mov     [rsp+arg_4F4], 0Dh
0x180001905 c6 84 24 fd 04 00 00 0a mov     [rsp+arg_4F5], 0Ah
0x18004e884 c6 84 24 fe 04 00 00 20 mov     [rsp+arg_4F6], 20h ; ' '
0x18003dbab c6 84 24 ff 04 00 00 20 mov     [rsp+arg_4F7], 20h ; ' '
0x180054dba c6 84 24 00 05 00 00 3a mov     byte ptr [rsp+500h], 3Ah ; ':'
0x18000d0a5 c6 84 24 01 05 00 00 20 mov     [rsp+arg_4F9], 20h ; ' '
0x18002fb51 c6 84 24 02 05 00 00 20 mov     [rsp+arg_4FA], 20h ; ' '
0x18004cd50 c6 84 24 03 05 00 00 22 mov     [rsp+arg_4FB], 22h ; '"'
0x18000e6d6 c6 84 24 04 05 00 00 2d mov     [rsp+arg_4FC], 2Dh ; '-'
0x1800627a5 c6 84 24 05 05 00 00 2e mov     byte ptr [rsp+505h], 2Eh ; '.'
0x180005f6f c6 84 24 06 05 00 00 20 mov     [rsp+arg_4FE], 20h ; ' '
0x18000e2dc c6 84 24 07 05 00 00 20 mov     [rsp+arg_4FF], 20h ; ' '
0x180006f13 c6 84 24 08 05 00 00 22 mov     [rsp+arg_500], 22h ; '"'
0x1800634f1 c6 84 24 09 05 00 00 2d mov     byte ptr [rsp+509h], 2Dh ; '-'
0x18000e873 c6 84 24 0a 05 00 00 3a mov     [rsp+arg_502], 3Ah ; ':'
0x1800554b4 c6 84 24 0b 05 00 00 20 mov     byte ptr [rsp+50Bh], 20h ; ' '
0x18005afd9 c6 84 24 0c 05 00 00 20 mov     byte ptr [rsp+50Ch], 20h ; ' '
0x18004b1fe c6 84 24 0d 05 00 00 3b mov     [rsp+arg_505], 3Bh ; ';'
0x180048134 c6 84 24 0e 05 00 00 20 mov     [rsp+arg_506], 20h ; ' '
0x180051088 c6 84 24 0f 05 00 00 20 mov     [rsp+arg_507], 20h ; ' '
0x18004bfae c6 84 24 10 05 00 00 20 mov     [rsp+28h+arg_4E0], 20h ; ' '
0x180011855 c6 84 24 11 05 00 00 20 mov     [rsp+28h+arg_4D9], 20h ; ' '
0x1800490c6 c6 84 24 12 05 00 00 20 mov     [rsp+28h+arg_4DA], 20h ; ' '
0x180015bf8 c6 84 24 13 05 00 00 20 mov     [rsp+28h+arg_4DB], 20h ; ' '
0x18001a983 c6 84 24 14 05 00 00 20 mov     [rsp+28h+arg_4DC], 20h ; ' '
0x18001b698 c6 84 24 15 05 00 00 20 mov     [rsp+28h+arg_4DD], 20h ; ' '
0x18005e0f8 c6 84 24 16 05 00 00 20 mov     [rsp+28h+arg_4DE], 20h ; ' '
0x18000b50b c6 84 24 17 05 00 00 20 mov     [rsp+28h+arg_4DF], 20h ; ' '
0x1800512e0 c6 84 24 18 05 00 00 3a mov     byte ptr [rsp+518h], 3Ah ; ':'
0x1800232fc c6 84 24 19 05 00 00 2f mov     [rsp+28h+arg_4E1], 2Fh ; '/'
0x18005bf76 c6 84 24 1a 05 00 00 2e mov     [rsp+28h+arg_4E2], 2Eh ; '.'
0x18005e6d2 c6 84 24 1b 05 00 00 22 mov     [rsp+28h+arg_4E3], 22h ; '"'
0x18001015b c6 84 24 1c 05 00 00 20 mov     [rsp+28h+arg_4E4], 20h ; ' '
0x1800375c2 c6 84 24 1d 05 00 00 20 mov     [rsp+28h+arg_4E5], 20h ; ' '
0x180063d24 c6 84 24 1e 05 00 00 20 mov     [rsp+28h+arg_4E6], 20h ; ' '
0x180060e76 c6 84 24 1f 05 00 00 20 mov     [rsp+28h+arg_4E7], 20h ; ' '
0x1800330ea c6 84 24 20 05 00 00 20 mov     [rsp+arg_510], 20h ; ' '
0x180021bae c6 84 24 21 05 00 00 20 mov     [rsp+arg_519], 20h ; ' '
0x18004d87d c6 84 24 22 05 00 00 2e mov     [rsp+arg_512], 2Eh ; '.'
0x180030ec8 c6 84 24 23 05 00 00 27 mov     [rsp+arg_513], 27h ; '''
0x18002f3c9 c6 84 24 24 05 00 00 20 mov     [rsp+arg_514], 20h ; ' '
0x180035299 c6 84 24 25 05 00 00 20 mov     [rsp+arg_515], 20h ; ' '
0x180012a5d c6 84 24 26 05 00 00 3a mov     [rsp+arg_51E], 3Ah ; ':'
0x180039ee1 c6 84 24 27 05 00 00 0d mov     [rsp+arg_517], 0Dh
0x18001d902 c6 84 24 28 05 00 00 0a mov     [rsp+arg_520], 0Ah
0x180010658 c6 84 24 29 05 00 00 20 mov     [rsp+arg_521], 20h ; ' '
0x1800655ce c6 84 24 2a 05 00 00 20 mov     [rsp+arg_51A], 20h ; ' '
0x1800344a9 c6 84 24 2b 05 00 00 20 mov     [rsp+arg_51B], 20h ; ' '
0x18000975e c6 84 24 2c 05 00 00 5c mov     [rsp+arg_524], 5Ch ; '\'
0x180017712 c6 84 24 2d 05 00 00 20 mov     [rsp+arg_525], 20h ; ' '
0x180062f0f c6 84 24 2e 05 00 00 20 mov     byte ptr [rsp+52Eh], 20h ; ' '
0x18000a91d c6 84 24 2f 05 00 00 20 mov     [rsp+arg_527], 20h ; ' '
0x18002647e c6 84 24 30 05 00 00 20 mov     [rsp+arg_528], 20h ; ' '
0x18001c061 c6 84 24 31 05 00 00 20 mov     [rsp+arg_529], 20h ; ' '
0x18002656a c6 84 24 32 05 00 00 20 mov     [rsp+arg_52A], 20h ; ' '
0x18004caaa c6 84 24 33 05 00 00 20 mov     [rsp+arg_523], 20h ; ' '
0x18003820b c6 84 24 34 05 00 00 20 mov     byte ptr [rsp+534h], 20h ; ' '
0x18000bd90 c6 84 24 35 05 00 00 20 mov     [rsp+arg_52D], 20h ; ' '
0x180044cbf c6 84 24 36 05 00 00 5c mov     [rsp+arg_526], 5Ch ; '\'
0x1800101d7 c6 84 24 37 05 00 00 20 mov     [rsp+arg_52F], 20h ; ' '
0x1800386eb c6 84 24 38 05 00 00 3a mov     byte ptr [rsp+538h], 3Ah ; ':'
0x180019ea0 c6 84 24 39 05 00 00 20 mov     [rsp+arg_531], 20h ; ' '
0x180046f8e c6 84 24 3a 05 00 00 20 mov     byte ptr [rsp+53Ah], 20h ; ' '
0x180008f32 c6 84 24 3b 05 00 00 20 mov     [rsp+arg_533], 20h ; ' '
0x18003c31b c6 84 24 3c 05 00 00 20 mov     [rsp+arg_52C], 20h ; ' '
0x18000a6ac c6 84 24 3d 05 00 00 20 mov     [rsp+arg_535], 20h ; ' '
0x18002fbb6 c6 84 24 3e 05 00 00 20 mov     [rsp+arg_52E], 20h ; ' '
0x18005cac4 c6 84 24 3f 05 00 00 20 mov     byte ptr [rsp+53Fh], 20h ; ' '
0x18003cfa8 c6 84 24 40 05 00 00 20 mov     [rsp+arg_530], 20h ; ' '
0x180026005 c6 84 24 41 05 00 00 20 mov     [rsp+arg_539], 20h ; ' '
0x18002b48f c6 84 24 42 05 00 00 20 mov     [rsp+arg_532], 20h ; ' '
0x18004e7e7 c6 84 24 43 05 00 00 3b mov     byte ptr [rsp+543h], 3Bh ; ';'
0x18000d372 c6 84 24 44 05 00 00 2f mov     [rsp+arg_53C], 2Fh ; '/'
0x18004668a c6 84 24 45 05 00 00 20 mov     byte ptr [rsp+545h], 20h ; ' '
0x18002c4ef c6 84 24 46 05 00 00 20 mov     [rsp+arg_536], 20h ; ' '
0x180046637 c6 84 24 47 05 00 00 5f mov     [rsp+arg_537], 5Fh ; '_'
0x1800504ff c6 84 24 48 05 00 00 5f mov     [rsp+arg_538], 5Fh ; '_'
0x180047334 c6 84 24 49 05 00 00 20 mov     byte ptr [rsp+549h], 20h ; ' '
0x180057dad c6 84 24 4a 05 00 00 20 mov     [rsp+arg_53A], 20h ; ' '
0x18003fd02 c6 84 24 4b 05 00 00 20 mov     [rsp+arg_53B], 20h ; ' '
0x18005ebc8 c6 84 24 4c 05 00 00 20 mov     byte ptr [rsp+54Ch], 20h ; ' '
0x180007620 c6 84 24 4d 05 00 00 20 mov     [rsp+arg_545], 20h ; ' '
0x180040201 c6 84 24 4e 05 00 00 20 mov     [rsp+arg_53E], 20h ; ' '
0x180046d25 c6 84 24 4f 05 00 00 20 mov     [rsp+arg_53F], 20h ; ' '
0x180048ccf c6 84 24 50 05 00 00 20 mov     [rsp+arg_540], 20h ; ' '
0x18001acb1 c6 84 24 51 05 00 00 3a mov     [rsp+arg_549], 3Ah ; ':'
0x180028254 c6 84 24 52 05 00 00 0d mov     [rsp+arg_54A], 0Dh
0x180004fcc c6 84 24 53 05 00 00 0a mov     byte ptr [rsp+553h], 0Ah
0x18000e970 c6 84 24 54 05 00 00 20 mov     byte ptr [rsp+554h], 20h ; ' '
0x1800657ff c6 84 24 55 05 00 00 20 mov     byte ptr [rsp+555h], 20h ; ' '
0x1800407f2 c6 84 24 56 05 00 00 20 mov     byte ptr [rsp+556h], 20h ; ' '
0x18001a45b c6 84 24 57 05 00 00 20 mov     byte ptr [rsp+557h], 20h ; ' '
0x180008d01 c6 84 24 58 05 00 00 5c mov     byte ptr [rsp+558h], 5Ch ; '\'
0x180054fe4 c6 84 24 59 05 00 00 20 mov     byte ptr [rsp+559h], 20h ; ' '
0x180020569 c6 84 24 5a 05 00 00 20 mov     byte ptr [rsp+55Ah], 20h ; ' '
0x18003f565 c6 84 24 5b 05 00 00 20 mov     byte ptr [rsp+55Bh], 20h ; ' '
0x1800086e5 c6 84 24 5c 05 00 00 20 mov     byte ptr [rsp+55Ch], 20h ; ' '
0x180011a6d c6 84 24 5d 05 00 00 20 mov     byte ptr [rsp+55Dh], 20h ; ' '
0x180061c65 c6 84 24 5e 05 00 00 20 mov     byte ptr [rsp+55Eh], 20h ; ' '
0x180059760 c6 84 24 5f 05 00 00 20 mov     byte ptr [rsp+55Fh], 20h ; ' '
0x180058276 c6 84 24 60 05 00 00 2e mov     byte ptr [rsp+560h], 2Eh ; '.'
0x1800588a3 c6 84 24 61 05 00 00 2d mov     byte ptr [rsp+561h], 2Dh ; '-'
0x180019a12 c6 84 24 62 05 00 00 60 mov     byte ptr [rsp+562h], 60h ; '`'
0x18005e839 c6 84 24 63 05 00 00 2e mov     byte ptr [rsp+563h], 2Eh ; '.'
0x1800354ad c6 84 24 64 05 00 00 5c mov     byte ptr [rsp+564h], 5Ch ; '\'
0x180062e6a c6 84 24 65 05 00 00 20 mov     byte ptr [rsp+565h], 20h ; ' '
0x1800355e4 c6 84 24 66 05 00 00 20 mov     byte ptr [rsp+566h], 20h ; ' '
0x1800559f7 c6 84 24 67 05 00 00 20 mov     byte ptr [rsp+567h], 20h ; ' '
0x18002c2a2 c6 84 24 68 05 00 00 20 mov     byte ptr [rsp+568h], 20h ; ' '
0x18006554a c6 84 24 69 05 00 00 20 mov     byte ptr [rsp+569h], 20h ; ' '
0x1800385ad c6 84 24 6a 05 00 00 20 mov     byte ptr [rsp+56Ah], 20h ; ' '
0x18002c5b2 c6 84 24 6b 05 00 00 20 mov     byte ptr [rsp+56Bh], 20h ; ' '
0x180034365 c6 84 24 6c 05 00 00 20 mov     byte ptr [rsp+56Ch], 20h ; ' '
0x180005052 c6 84 24 6d 05 00 00 2f mov     byte ptr [rsp+56Dh], 2Fh ; '/'
0x180026136 c6 84 24 6e 05 00 00 74 mov     byte ptr [rsp+56Eh], 74h ; 't'
0x180004884 c6 84 24 6f 05 00 00 2d mov     byte ptr [rsp+56Fh], 2Dh ; '-'
0x1800607c0 c6 84 24 70 05 00 00 22 mov     byte ptr [rsp+570h], 22h ; '"'
0x18002fa05 c6 84 24 71 05 00 00 22 mov     byte ptr [rsp+571h], 22h ; '"'
0x180023243 c6 84 24 72 05 00 00 20 mov     byte ptr [rsp+572h], 20h ; ' '
0x18001d1b6 c6 84 24 73 05 00 00 20 mov     byte ptr [rsp+573h], 20h ; ' '
0x1800412bc c6 84 24 74 05 00 00 22 mov     byte ptr [rsp+574h], 22h ; '"'
0x180004f2d c6 84 24 75 05 00 00 3a mov     byte ptr [rsp+575h], 3Ah ; ':'
0x1800406a4 c6 84 24 76 05 00 00 2d mov     byte ptr [rsp+576h], 2Dh ; '-'
0x18000ce4f c6 84 24 77 05 00 00 2b mov     byte ptr [rsp+577h], 2Bh ; '+'
0x18001f0f7 c6 84 24 78 05 00 00 2e mov     byte ptr [rsp+578h], 2Eh ; '.'
0x1800099a5 c6 84 24 79 05 00 00 20 mov     byte ptr [rsp+579h], 20h ; ' '
0x180039150 c6 84 24 7a 05 00 00 20 mov     byte ptr [rsp+57Ah], 20h ; ' '
0x18001c653 c6 84 24 7b 05 00 00 20 mov     byte ptr [rsp+57Bh], 20h ; ' '
0x18004714e c6 84 24 7c 05 00 00 3a mov     byte ptr [rsp+57Ch], 3Ah ; ':'
0x18002e08d c6 84 24 7d 05 00 00 0d mov     byte ptr [rsp+57Dh], 0Dh
0x18005b40a c6 84 24 7e 05 00 00 0a mov     byte ptr [rsp+57Eh], 0Ah
0x1800303ef c6 84 24 7f 05 00 00 20 mov     byte ptr [rsp+57Fh], 20h ; ' '
0x180035ae7 c6 84 24 80 05 00 00 20 mov     byte ptr [rsp+580h], 20h ; ' '
0x18002c461 c6 84 24 81 05 00 00 20 mov     byte ptr [rsp+581h], 20h ; ' '
0x180006f24 c6 84 24 82 05 00 00 20 mov     byte ptr [rsp+582h], 20h ; ' '
0x180065cbf c6 84 24 83 05 00 00 20 mov     byte ptr [rsp+583h], 20h ; ' '
0x1800446aa c6 84 24 84 05 00 00 60 mov     byte ptr [rsp+584h], 60h ; '`'
0x180029ec3 c6 84 24 85 05 00 00 2e mov     byte ptr [rsp+585h], 2Eh ; '.'
0x1800242b2 c6 84 24 86 05 00 00 20 mov     byte ptr [rsp+586h], 20h ; ' '
0x180014ab6 c6 84 24 87 05 00 00 20 mov     byte ptr [rsp+587h], 20h ; ' '
0x18001eff0 c6 84 24 88 05 00 00 2e mov     byte ptr [rsp+588h], 2Eh ; '.'
0x18005c3a9 c6 84 24 89 05 00 00 2d mov     [rsp+30h+arg_549], 2Dh ; '-'
0x180049380 c6 84 24 8a 05 00 00 22 mov     [rsp+30h+arg_54A], 22h ; '"'
0x180048db8 c6 84 24 8b 05 00 00 20 mov     [rsp+30h+arg_54B], 20h ; ' '
0x180043dae c6 84 24 8c 05 00 00 20 mov     [rsp+30h+arg_54C], 20h ; ' '
0x180004acf c6 84 24 8d 05 00 00 20 mov     byte ptr [rsp+58Dh], 20h ; ' '
0x18006462a c6 84 24 8e 05 00 00 20 mov     byte ptr [rsp+58Eh], 20h ; ' '
0x180044c09 c6 84 24 8f 05 00 00 60 mov     byte ptr [rsp+58Fh], 60h ; '`'
0x180061ae6 c6 84 24 90 05 00 00 6c mov     byte ptr [rsp+590h], 6Ch ; 'l'
0x180019ee0 c6 84 24 91 05 00 00 20 mov     byte ptr [rsp+591h], 20h ; ' '
0x180034515 c6 84 24 92 05 00 00 20 mov     byte ptr [rsp+592h], 20h ; ' '
0x1800566c1 c6 84 24 93 05 00 00 20 mov     byte ptr [rsp+593h], 20h ; ' '
0x1800474ff c6 84 24 94 05 00 00 20 mov     byte ptr [rsp+594h], 20h ; ' '
0x18002c28e c6 84 24 95 05 00 00 5f mov     byte ptr [rsp+595h], 5Fh ; '_'
0x18003c10f c6 84 24 96 05 00 00 5f mov     byte ptr [rsp+596h], 5Fh ; '_'
0x180037635 c6 84 24 97 05 00 00 2f mov     byte ptr [rsp+597h], 2Fh ; '/'
0x180013122 c6 84 24 98 05 00 00 20 mov     byte ptr [rsp+598h], 20h ; ' '
0x180054762 c6 84 24 99 05 00 00 2f mov     byte ptr [rsp+599h], 2Fh ; '/'
0x18000be39 c6 84 24 9a 05 00 00 60 mov     byte ptr [rsp+59Ah], 60h ; '`'
0x18001fa2f c6 84 24 9b 05 00 00 2e mov     byte ptr [rsp+59Bh], 2Eh ; '.'
0x18003288d c6 84 24 9c 05 00 00 20 mov     byte ptr [rsp+59Ch], 20h ; ' '
0x18001b375 c6 84 24 9d 05 00 00 3a mov     byte ptr [rsp+59Dh], 3Ah ; ':'
0x18005d0f2 c6 84 24 9e 05 00 00 20 mov     byte ptr [rsp+59Eh], 20h ; ' '
0x180023edd c6 84 24 9f 05 00 00 20 mov     byte ptr [rsp+59Fh], 20h ; ' '
0x1800067d0 c6 84 24 a0 05 00 00 3b mov     byte ptr [rsp+5A0h], 3Bh ; ';'
0x18001bbeb c6 84 24 a1 05 00 00 20 mov     byte ptr [rsp+5A1h], 20h ; ' '
0x180040d79 c6 84 24 a2 05 00 00 3b mov     byte ptr [rsp+5A2h], 3Bh ; ';'
0x18001117c c6 84 24 a3 05 00 00 20 mov     byte ptr [rsp+5A3h], 20h ; ' '
0x180065360 c6 84 24 a4 05 00 00 5c mov     byte ptr [rsp+5A4h], 5Ch ; '\'
0x180054250 c6 84 24 a5 05 00 00 20 mov     byte ptr [rsp+5A5h], 20h ; ' '
0x180007258 c6 84 24 a6 05 00 00 20 mov     byte ptr [rsp+5A6h], 20h ; ' '
0x18005e032 c6 84 24 a7 05 00 00 3b mov     byte ptr [rsp+5A7h], 3Bh ; ';'
0x180026beb c6 84 24 a8 05 00 00 0d mov     byte ptr [rsp+5A8h], 0Dh
0x180060362 c6 84 24 a9 05 00 00 0a mov     byte ptr [rsp+5A9h], 0Ah
0x180065d69 c6 84 24 aa 05 00 00 20 mov     byte ptr [rsp+5AAh], 20h ; ' '
0x18005946c c6 84 24 ab 05 00 00 20 mov     byte ptr [rsp+5ABh], 20h ; ' '
0x1800559c7 c6 84 24 ac 05 00 00 20 mov     byte ptr [rsp+5ACh], 20h ; ' '
0x18005cbd9 c6 84 24 ad 05 00 00 20 mov     byte ptr [rsp+5ADh], 20h ; ' '
0x18002196e c6 84 24 ae 05 00 00 20 mov     byte ptr [rsp+5AEh], 20h ; ' '
0x180046bfd c6 84 24 af 05 00 00 20 mov     byte ptr [rsp+5AFh], 20h ; ' '
0x18004d74f c6 84 24 b0 05 00 00 20 mov     byte ptr [rsp+5B0h], 20h ; ' '
0x18005493f c6 84 24 b1 05 00 00 5c mov     byte ptr [rsp+5B1h], 5Ch ; '\'
0x18000e5ab c6 84 24 b2 05 00 00 20 mov     byte ptr [rsp+5B2h], 20h ; ' '
0x18000fc33 c6 84 24 b3 05 00 00 20 mov     byte ptr [rsp+5B3h], 20h ; ' '
0x18004d8fd c6 84 24 b4 05 00 00 20 mov     byte ptr [rsp+5B4h], 20h ; ' '
0x180057497 c6 84 24 b5 05 00 00 2e mov     byte ptr [rsp+5B5h], 2Eh ; '.'
0x18001fb72 c6 84 24 b6 05 00 00 2d mov     byte ptr [rsp+5B6h], 2Dh ; '-'
0x18005324a c6 84 24 b7 05 00 00 22 mov     byte ptr [rsp+5B7h], 22h ; '"'
0x180021f06 c6 84 24 b8 05 00 00 20 mov     byte ptr [rsp+5B8h], 20h ; ' '
0x180054896 c6 84 24 b9 05 00 00 2e mov     byte ptr [rsp+5B9h], 2Eh ; '.'
0x180040123 c6 84 24 ba 05 00 00 2d mov     byte ptr [rsp+5BAh], 2Dh ; '-'
0x180027fa5 c6 84 24 bb 05 00 00 22 mov     byte ptr [rsp+5BBh], 22h ; '"'
0x18001cdad c6 84 24 bc 05 00 00 2d mov     byte ptr [rsp+5BCh], 2Dh ; '-'
0x1800117df c6 84 24 bd 05 00 00 2e mov     byte ptr [rsp+5BDh], 2Eh ; '.'
0x180003592 c6 84 24 be 05 00 00 2d mov     byte ptr [rsp+5BEh], 2Dh ; '-'
0x180052483 c6 84 24 bf 05 00 00 22 mov     byte ptr [rsp+5BFh], 22h ; '"'
0x18000d343 c6 84 24 c0 05 00 00 20 mov     byte ptr [rsp+5C0h], 20h ; ' '
0x180037419 c6 84 24 c1 05 00 00 20 mov     byte ptr [rsp+5C1h], 20h ; ' '
0x18004cdb6 c6 84 24 c2 05 00 00 2e mov     byte ptr [rsp+5C2h], 2Eh ; '.'
0x180015e84 c6 84 24 c3 05 00 00 27 mov     byte ptr [rsp+5C3h], 27h ; '''
0x18001c47c c6 84 24 c4 05 00 00 20 mov     byte ptr [rsp+5C4h], 20h ; ' '
0x18001c8be c6 84 24 c5 05 00 00 2e mov     byte ptr [rsp+5C5h], 2Eh ; '.'
0x180018dce c6 84 24 c6 05 00 00 27 mov     byte ptr [rsp+5C6h], 27h ; '''
0x180036cd4 c6 84 24 c7 05 00 00 6a mov     byte ptr [rsp+5C7h], 6Ah ; 'j'
0x180031ea8 c6 84 24 c8 05 00 00 20 mov     byte ptr [rsp+5C8h], 20h ; ' '
0x18003c9d5 c6 84 24 c9 05 00 00 5c mov     byte ptr [rsp+5C9h], 5Ch ; '\'
0x18004debf c6 84 24 ca 05 00 00 20 mov     byte ptr [rsp+5CAh], 20h ; ' '
0x18004751d c6 84 24 cb 05 00 00 20 mov     byte ptr [rsp+5CBh], 20h ; ' '
0x18001c58d c6 84 24 cc 05 00 00 2f mov     byte ptr [rsp+5CCh], 2Fh ; '/'
0x180037c4e c6 84 24 cd 05 00 00 20 mov     byte ptr [rsp+5CDh], 20h ; ' '
0x180047562 c6 84 24 ce 05 00 00 20 mov     byte ptr [rsp+5CEh], 20h ; ' '
0x180063b2f c6 84 24 cf 05 00 00 20 mov     byte ptr [rsp+5CFh], 20h ; ' '
0x18004a452 c6 84 24 d0 05 00 00 3b mov     byte ptr [rsp+5D0h], 3Bh ; ';'
0x180045c62 c6 84 24 d1 05 00 00 2f mov     byte ptr [rsp+5D1h], 2Fh ; '/'
0x180058070 c6 84 24 d2 05 00 00 20 mov     [rsp+20h+arg_5AA], 20h ; ' '
0x18003fa31 c6 84 24 d3 05 00 00 0d mov     [rsp+20h+arg_5AB], 0Dh
0x18003b555 c6 84 24 d4 05 00 00 0a mov     [rsp+20h+arg_5AC], 0Ah
0x18004ca8c c6 84 24 d5 05 00 00 20 mov     [rsp+20h+arg_5AD], 20h ; ' '
0x18004d2fd c6 84 24 d6 05 00 00 20 mov     [rsp+20h+arg_5AE], 20h ; ' '
0x180065fda c6 84 24 d7 05 00 00 20 mov     [rsp+20h+arg_5AF], 20h ; ' '
0x18002cc22 c6 84 24 d8 05 00 00 20 mov     [rsp+20h+arg_5B0], 20h ; ' '
0x18002c6b4 c6 84 24 d9 05 00 00 20 mov     [rsp+20h+arg_5B1], 20h ; ' '
0x180035256 c6 84 24 da 05 00 00 20 mov     [rsp+20h+arg_5B2], 20h ; ' '
0x180039e05 c6 84 24 db 05 00 00 20 mov     [rsp+20h+arg_5B3], 20h ; ' '
0x180026102 c6 84 24 dc 05 00 00 20 mov     [rsp+20h+arg_5B4], 20h ; ' '
0x18003575a c6 84 24 dd 05 00 00 5c mov     [rsp+20h+arg_5B5], 5Ch ; '\'
0x180059231 c6 84 24 de 05 00 00 20 mov     [rsp+20h+arg_5B6], 20h ; ' '
0x18005ebd5 c6 84 24 df 05 00 00 2f mov     [rsp+20h+arg_5B7], 2Fh ; '/'
0x180010fe7 c6 84 24 e0 05 00 00 20 mov     [rsp+20h+arg_5B8], 20h ; ' '
0x18001b238 c6 84 24 e1 05 00 00 2e mov     [rsp+20h+arg_5B9], 2Eh ; '.'
0x180009f77 c6 84 24 e2 05 00 00 2d mov     [rsp+20h+arg_5BA], 2Dh ; '-'
0x18000fe7b c6 84 24 e3 05 00 00 22 mov     [rsp+20h+arg_5BB], 22h ; '"'
0x18004c1d0 c6 84 24 e4 05 00 00 20 mov     [rsp+20h+arg_5BC], 20h ; ' '
0x18003168f c6 84 24 e5 05 00 00 20 mov     [rsp+20h+arg_5BD], 20h ; ' '
0x18003219a c6 84 24 e6 05 00 00 20 mov     [rsp+20h+arg_5BE], 20h ; ' '
0x18001d7ec c6 84 24 e7 05 00 00 2f mov     [rsp+20h+arg_5BF], 2Fh ; '/'
0x180022b0c c6 84 24 e8 05 00 00 2e mov     [rsp+20h+arg_5C0], 2Eh ; '.'
0x180055b80 c6 84 24 e9 05 00 00 20 mov     [rsp+20h+arg_5C1], 20h ; ' '
0x18004d79b c6 84 24 ea 05 00 00 20 mov     [rsp+20h+arg_5C2], 20h ; ' '
0x18002d736 c6 84 24 eb 05 00 00 20 mov     [rsp+20h+arg_5C3], 20h ; ' '
0x180065011 c6 84 24 ec 05 00 00 20 mov     [rsp+20h+arg_5C4], 20h ; ' '
0x180053b79 c6 84 24 ed 05 00 00 20 mov     [rsp+20h+arg_5C5], 20h ; ' '
0x18004e476 c6 84 24 ee 05 00 00 2e mov     [rsp+20h+arg_5C6], 2Eh ; '.'
0x18004dc37 c6 84 24 ef 05 00 00 27 mov     [rsp+20h+arg_5C7], 27h ; '''
0x180022a1b c6 84 24 f0 05 00 00 2e mov     [rsp+30h+arg_5B8], 2Eh ; '.'
0x180054a21 c6 84 24 f1 05 00 00 27 mov     [rsp+30h+arg_5B9], 27h ; '''
0x18002d56d c6 84 24 f2 05 00 00 20 mov     [rsp+30h+arg_5BA], 20h ; ' '
0x180015720 c6 84 24 f3 05 00 00 3b mov     [rsp+30h+arg_5BB], 3Bh ; ';'
0x18003c722 c6 84 24 f4 05 00 00 5f mov     [rsp+30h+arg_5BC], 5Fh ; '_'
0x180055c38 c6 84 24 f5 05 00 00 3a mov     [rsp+30h+arg_5BD], 3Ah ; ':'
0x18000e3e4 c6 84 24 f6 05 00 00 27 mov     [rsp+30h+arg_5BE], 27h ; '''
0x18001a877 c6 84 24 f7 05 00 00 20 mov     [rsp+30h+arg_5BF], 20h ; ' '
0x180063dfe c6 84 24 f8 05 00 00 20 mov     [rsp+30h+arg_5C0], 20h ; ' '
0x1800133fb c6 84 24 f9 05 00 00 20 mov     [rsp+30h+arg_5C1], 20h ; ' '
0x18005e472 c6 84 24 fa 05 00 00 20 mov     [rsp+30h+arg_5C2], 20h ; ' '
0x1800339e2 c6 84 24 fb 05 00 00 3b mov     [rsp+8+arg_5EB], 3Bh ; ';'
0x1800207e6 c6 84 24 fc 05 00 00 20 mov     [rsp+8+arg_5EC], 20h ; ' '
0x18002c580 c6 84 24 fd 05 00 00 20 mov     [rsp+8+arg_5ED], 20h ; ' '
0x18004446e c6 84 24 fe 05 00 00 0d mov     [rsp+8+arg_5EE], 0Dh
0x1800123a9 c6 84 24 ff 05 00 00 0a mov     [rsp+8+arg_5EF], 0Ah
0x180026bba c6 84 24 00 06 00 00 20 mov     [rsp+8+arg_5F0], 20h ; ' '
0x180020b0c c6 84 24 01 06 00 00 20 mov     [rsp+8+arg_5F1], 20h ; ' '
0x18001a934 c6 84 24 02 06 00 00 20 mov     [rsp+8+arg_5F2], 20h ; ' '
0x1800254d8 c6 84 24 03 06 00 00 20 mov     [rsp+8+arg_5F3], 20h ; ' '
0x180031470 c6 84 24 04 06 00 00 20 mov     [rsp+8+arg_5F4], 20h ; ' '
0x18004edc6 c6 84 24 05 06 00 00 20 mov     [rsp+8+arg_5F5], 20h ; ' '
0x180057ec7 c6 84 24 06 06 00 00 20 mov     [rsp+8+arg_5F6], 20h ; ' '
0x1800379c9 c6 84 24 07 06 00 00 20 mov     [rsp+8+arg_5F7], 20h ; ' '
0x18005e407 c6 84 24 08 06 00 00 20 mov     [rsp+8+arg_5F8], 20h ; ' '
0x180007598 c6 84 24 09 06 00 00 3a mov     [rsp+8+arg_5F9], 3Ah ; ':'
0x1800443a3 c6 84 24 0a 06 00 00 2d mov     [rsp+8+arg_5FA], 2Dh ; '-'
0x18005a34b c6 84 24 0b 06 00 00 22 mov     [rsp+8+arg_5FB], 22h ; '"'
0x18005895a c6 84 24 0c 06 00 00 22 mov     [rsp+8+arg_5FC], 22h ; '"'
0x180035dfe c6 84 24 0d 06 00 00 2d mov     [rsp+8+arg_5FD], 2Dh ; '-'
0x18001c421 c6 84 24 0e 06 00 00 2e mov     [rsp+8+arg_5FE], 2Eh ; '.'
0x18005240c c6 84 24 0f 06 00 00 60 mov     [rsp+8+arg_5FF], 60h ; '`'
0x18002c2ca c6 84 24 10 06 00 00 2e mov     [rsp+8+arg_600], 2Eh ; '.'
0x180015289 c6 84 24 11 06 00 00 2f mov     [rsp+8+arg_601], 2Fh ; '/'
0x18001f2cf c6 84 24 12 06 00 00 2d mov     [rsp+8+arg_602], 2Dh ; '-'
0x18005c141 c6 84 24 13 06 00 00 2e mov     [rsp+8+arg_603], 2Eh ; '.'
0x18005bce1 c6 84 24 14 06 00 00 27 mov     [rsp+8+arg_604], 27h ; '''
0x18005f30f c6 84 24 15 06 00 00 20 mov     [rsp+8+arg_605], 20h ; ' '
0x18003bab8 c6 84 24 16 06 00 00 20 mov     [rsp+8+arg_606], 20h ; ' '
0x18002fc68 c6 84 24 17 06 00 00 20 mov     [rsp+8+arg_607], 20h ; ' '
0x1800289ca c6 84 24 18 06 00 00 20 mov     [rsp+8+arg_608], 20h ; ' '
0x18002b13b c6 84 24 19 06 00 00 20 mov     [rsp+8+arg_609], 20h ; ' '
0x18002d58f c6 84 24 1a 06 00 00 2f mov     [rsp+8+arg_60A], 2Fh ; '/'
0x180052d5a c6 84 24 1b 06 00 00 20 mov     [rsp+8+arg_60B], 20h ; ' '
0x18000132e c6 84 24 1c 06 00 00 20 mov     [rsp+8+arg_60C], 20h ; ' '
0x18005d0cf c6 84 24 1d 06 00 00 20 mov     [rsp+8+arg_60D], 20h ; ' '
0x180031d04 c6 84 24 1e 06 00 00 20 mov     [rsp+8+arg_60E], 20h ; ' '
0x180060871 c6 84 24 1f 06 00 00 60 mov     [rsp+8+arg_60F], 60h ; '`'
0x180057bf4 c6 84 24 20 06 00 00 2e mov     [rsp+8+arg_610], 2Eh ; '.'
0x180029471 c6 84 24 21 06 00 00 5f mov     [rsp+8+arg_611], 5Fh ; '_'
0x180019687 c6 84 24 22 06 00 00 5f mov     [rsp+8+arg_612], 5Fh ; '_'
0x180046845 c6 84 24 23 06 00 00 5f mov     [rsp+8+arg_613], 5Fh ; '_'
0x18000be65 c6 84 24 24 06 00 00 2e mov     [rsp+8+arg_614], 2Eh ; '.'
0x1800085a9 c6 84 24 25 06 00 00 27 mov     [rsp+8+arg_615], 27h ; '''
0x180020147 c6 84 24 26 06 00 00 20 mov     [rsp+8+arg_616], 20h ; ' '
0x18001f621 c6 84 24 27 06 00 00 20 mov     [rsp+8+arg_617], 20h ; ' '
0x18005f163 c6 84 24 28 06 00 00 20 mov     [rsp+8+arg_618], 20h ; ' '
0x18000b817 c6 84 24 29 06 00 00 0d mov     [rsp+8+arg_619], 0Dh
0x18000e52d c6 84 24 2a 06 00 00 0a mov     [rsp+8+arg_61A], 0Ah
0x18002f93c c6 84 24 2b 06 00 00 20 mov     [rsp+8+arg_61B], 20h ; ' '
0x18002e539 c6 84 24 2c 06 00 00 20 mov     [rsp+8+arg_61C], 20h ; ' '
0x18002b820 c6 84 24 2d 06 00 00 20 mov     [rsp+8+arg_61D], 20h ; ' '
0x180024a77 c6 84 24 2e 06 00 00 20 mov     [rsp+8+arg_61E], 20h ; ' '
0x180042133 c6 84 24 2f 06 00 00 20 mov     [rsp+8+arg_61F], 20h ; ' '
0x180003d7a c6 84 24 30 06 00 00 20 mov     [rsp+8+arg_620], 20h ; ' '
0x18001447b c6 84 24 31 06 00 00 20 mov     [rsp+8+arg_621], 20h ; ' '
0x18000d0bd c6 84 24 32 06 00 00 20 mov     [rsp+8+arg_622], 20h ; ' '
0x18004c723 c6 84 24 33 06 00 00 20 mov     [rsp+8+arg_623], 20h ; ' '
0x18004355a c6 84 24 34 06 00 00 20 mov     [rsp+8+arg_624], 20h ; ' '
0x180040100 c6 84 24 35 06 00 00 20 mov     [rsp+8+arg_625], 20h ; ' '
0x1800195a7 c6 84 24 36 06 00 00 20 mov     [rsp+8+arg_626], 20h ; ' '
0x1800599a4 c6 84 24 37 06 00 00 20 mov     [rsp+8+arg_627], 20h ; ' '
0x180063f72 c6 84 24 38 06 00 00 20 mov     [rsp+8+arg_628], 20h ; ' '
0x180006d64 c6 84 24 39 06 00 00 20 mov     [rsp+8+arg_629], 20h ; ' '
0x18000acfb c6 84 24 3a 06 00 00 5c mov     [rsp+8+arg_62A], 5Ch ; '\'
0x1800645c5 c6 84 24 3b 06 00 00 20 mov     [rsp+8+arg_62B], 20h ; ' '
0x18003d978 c6 84 24 3c 06 00 00 60 mov     [rsp+8+arg_62C], 60h ; '`'
0x18001411f c6 84 24 3d 06 00 00 74 mov     [rsp+8+arg_62D], 74h ; 't'
0x180026a8d c6 84 24 3e 06 00 00 20 mov     [rsp+8+arg_62E], 20h ; ' '
0x1800040d4 c6 84 24 3f 06 00 00 20 mov     byte ptr [rsp+63Fh], 20h ; ' '
0x180056674 c6 84 24 40 06 00 00 2e mov     byte ptr [rsp+640h], 2Eh ; '.'
0x18004ba69 c6 84 24 41 06 00 00 5f mov     byte ptr [rsp+641h], 5Fh ; '_'
0x180062459 c6 84 24 42 06 00 00 20 mov     byte ptr [rsp+642h], 20h ; ' '
0x180063669 c6 84 24 43 06 00 00 20 mov     byte ptr [rsp+643h], 20h ; ' '
0x18001e0ee c6 84 24 44 06 00 00 2f mov     byte ptr [rsp+644h], 2Fh ; '/'
0x18000bb06 c6 84 24 45 06 00 00 20 mov     byte ptr [rsp+645h], 20h ; ' '
0x18001f8c9 c6 84 24 46 06 00 00 20 mov     byte ptr [rsp+646h], 20h ; ' '
0x180004062 c6 84 24 47 06 00 00 20 mov     byte ptr [rsp+647h], 20h ; ' '
0x180065147 c6 84 24 48 06 00 00 20 mov     byte ptr [rsp+648h], 20h ; ' '
0x18002eb26 c6 84 24 49 06 00 00 20 mov     byte ptr [rsp+649h], 20h ; ' '
0x180009d10 c6 84 24 4a 06 00 00 20 mov     byte ptr [rsp+64Ah], 20h ; ' '
0x18003089a c6 84 24 4b 06 00 00 20 mov     byte ptr [rsp+64Bh], 20h ; ' '
0x18004e647 c6 84 24 4c 06 00 00 20 mov     byte ptr [rsp+64Ch], 20h ; ' '
0x18002832e c6 84 24 4d 06 00 00 20 mov     byte ptr [rsp+64Dh], 20h ; ' '
0x18004015d c6 84 24 4e 06 00 00 20 mov     byte ptr [rsp+64Eh], 20h ; ' '
0x18002de58 c6 84 24 4f 06 00 00 20 mov     byte ptr [rsp+64Fh], 20h ; ' '
0x18000d268 c6 84 24 50 06 00 00 20 mov     byte ptr [rsp+650h], 20h ; ' '
0x1800516b4 c6 84 24 51 06 00 00 0d mov     byte ptr [rsp+651h], 0Dh
0x18003ca39 c6 84 24 52 06 00 00 0a mov     byte ptr [rsp+652h], 0Ah
0x1800541f0 c6 84 24 53 06 00 00 20 mov     byte ptr [rsp+653h], 20h ; ' '
0x180009d63 c6 84 24 54 06 00 00 20 mov     byte ptr [rsp+654h], 20h ; ' '
0x180031ae4 c6 84 24 55 06 00 00 20 mov     byte ptr [rsp+655h], 20h ; ' '
0x18005123d c6 84 24 56 06 00 00 20 mov     byte ptr [rsp+656h], 20h ; ' '
0x18002d557 c6 84 24 57 06 00 00 20 mov     byte ptr [rsp+657h], 20h ; ' '
0x180022a3b c6 84 24 58 06 00 00 20 mov     byte ptr [rsp+658h], 20h ; ' '
0x18004df7b c6 84 24 59 06 00 00 20 mov     byte ptr [rsp+659h], 20h ; ' '
0x18005788e c6 84 24 5a 06 00 00 20 mov     byte ptr [rsp+65Ah], 20h ; ' '
0x1800099fa c6 84 24 5b 06 00 00 20 mov     byte ptr [rsp+65Bh], 20h ; ' '
0x180041279 c6 84 24 5c 06 00 00 20 mov     byte ptr [rsp+65Ch], 20h ; ' '
0x18000d68e c6 84 24 5d 06 00 00 20 mov     byte ptr [rsp+65Dh], 20h ; ' '
0x18003ab92 c6 84 24 5e 06 00 00 20 mov     byte ptr [rsp+65Eh], 20h ; ' '
0x18001388f c6 84 24 5f 06 00 00 20 mov     byte ptr [rsp+65Fh], 20h ; ' '
0x180033c36 c6 84 24 60 06 00 00 20 mov     byte ptr [rsp+660h], 20h ; ' '
0x180020190 c6 84 24 61 06 00 00 20 mov     byte ptr [rsp+661h], 20h ; ' '
0x180016f76 c6 84 24 62 06 00 00 20 mov     byte ptr [rsp+662h], 20h ; ' '
0x1800137fa c6 84 24 63 06 00 00 22 mov     byte ptr [rsp+663h], 22h ; '"'
0x180052c4c c6 84 24 64 06 00 00 2d mov     byte ptr [rsp+664h], 2Dh ; '-'
0x18006416f c6 84 24 65 06 00 00 2e mov     byte ptr [rsp+665h], 2Eh ; '.'
0x180032306 c6 84 24 66 06 00 00 74 mov     byte ptr [rsp+666h], 74h ; 't'
0x180055481 c6 84 24 67 06 00 00 2d mov     byte ptr [rsp+667h], 2Dh ; '-'
0x1800349f9 c6 84 24 68 06 00 00 2e mov     byte ptr [rsp+668h], 2Eh ; '.'
0x18001e84f c6 84 24 69 06 00 00 5f mov     byte ptr [rsp+669h], 5Fh ; '_'
0x18003d064 c6 84 24 6a 06 00 00 3a mov     byte ptr [rsp+66Ah], 3Ah ; ':'
0x180043ae1 c6 84 24 6b 06 00 00 27 mov     byte ptr [rsp+66Bh], 27h ; '''
0x18002ceac c6 84 24 6c 06 00 00 20 mov     byte ptr [rsp+66Ch], 20h ; ' '
0x1800240d2 c6 84 24 6d 06 00 00 20 mov     byte ptr [rsp+66Dh], 20h ; ' '
0x18000d355 c6 84 24 6e 06 00 00 20 mov     byte ptr [rsp+66Eh], 20h ; ' '
0x180055079 c6 84 24 6f 06 00 00 20 mov     byte ptr [rsp+66Fh], 20h ; ' '
0x18004826b c6 84 24 70 06 00 00 20 mov     byte ptr [rsp+670h], 20h ; ' '
0x18002a396 c6 84 24 71 06 00 00 20 mov     byte ptr [rsp+671h], 20h ; ' '
0x18002e827 c6 84 24 72 06 00 00 20 mov     byte ptr [rsp+672h], 20h ; ' '
0x180029b7c c6 84 24 73 06 00 00 20 mov     byte ptr [rsp+673h], 20h ; ' '
0x18001a27f c6 84 24 74 06 00 00 20 mov     byte ptr [rsp+674h], 20h ; ' '
0x18000533c c6 84 24 75 06 00 00 20 mov     byte ptr [rsp+675h], 20h ; ' '
0x18004d6c5 c6 84 24 76 06 00 00 20 mov     byte ptr [rsp+676h], 20h ; ' '
0x180017d02 c6 84 24 77 06 00 00 20 mov     byte ptr [rsp+677h], 20h ; ' '
0x18000a287 c6 84 24 78 06 00 00 20 mov     byte ptr [rsp+678h], 20h ; ' '
0x180037208 c6 84 24 79 06 00 00 20 mov     byte ptr [rsp+679h], 20h ; ' '
0x18001da41 c6 84 24 7a 06 00 00 20 mov     byte ptr [rsp+67Ah], 20h ; ' '
0x18003ca58 c6 84 24 7b 06 00 00 20 mov     byte ptr [rsp+67Bh], 20h ; ' '
0x180052cf6 c6 84 24 7c 06 00 00 0d mov     byte ptr [rsp+67Ch], 0Dh
0x18003ac10 c6 84 24 7d 06 00 00 0a mov     byte ptr [rsp+67Dh], 0Ah
0x18001a77e c6 84 24 7e 06 00 00 0d mov     byte ptr [rsp+67Eh], 0Dh
0x180048b65 c6 84 24 7f 06 00 00 0a mov     byte ptr [rsp+67Fh], 0Ah
0x18001ef83 c6 84 24 80 06 00 00 20 mov     byte ptr [rsp+680h], 20h ; ' '
0x180056744 c6 84 24 81 06 00 00 5f mov     byte ptr [rsp+681h], 5Fh ; '_'
0x180042dd2 c6 84 24 82 06 00 00 5f mov     byte ptr [rsp+682h], 5Fh ; '_'
0x18002a7b5 c6 84 24 83 06 00 00 20 mov     byte ptr [rsp+683h], 20h ; ' '
0x180015cb4 c6 84 24 84 06 00 00 20 mov     byte ptr [rsp+684h], 20h ; ' '
0x180052001 c6 84 24 85 06 00 00 20 mov     byte ptr [rsp+685h], 20h ; ' '
0x180023d73 c6 84 24 86 06 00 00 20 mov     byte ptr [rsp+686h], 20h ; ' '
0x1800159cd c6 84 24 87 06 00 00 20 mov     byte ptr [rsp+687h], 20h ; ' '
0x18005d3fa c6 84 24 88 06 00 00 5f mov     byte ptr [rsp+688h], 5Fh ; '_'
0x180056aa0 c6 84 24 89 06 00 00 5f mov     byte ptr [rsp+689h], 5Fh ; '_'
0x1800509fe c6 84 24 8a 06 00 00 5f mov     byte ptr [rsp+68Ah], 5Fh ; '_'
0x180009a72 c6 84 24 8b 06 00 00 5f mov     byte ptr [rsp+68Bh], 5Fh ; '_'
0x1800577ff c6 84 24 8c 06 00 00 5f mov     byte ptr [rsp+68Ch], 5Fh ; '_'
0x18001a2f1 c6 84 24 8d 06 00 00 20 mov     byte ptr [rsp+68Dh], 20h ; ' '
0x18002afe5 c6 84 24 8e 06 00 00 20 mov     byte ptr [rsp+68Eh], 20h ; ' '
0x18003bd34 c6 84 24 8f 06 00 00 20 mov     byte ptr [rsp+68Fh], 20h ; ' '
0x18002ecfc c6 84 24 90 06 00 00 20 mov     byte ptr [rsp+690h], 20h ; ' '
0x18002ebcc c6 84 24 91 06 00 00 20 mov     byte ptr [rsp+691h], 20h ; ' '
0x18000f12f c6 84 24 92 06 00 00 20 mov     byte ptr [rsp+692h], 20h ; ' '
0x18000c1f1 c6 84 24 93 06 00 00 5f mov     byte ptr [rsp+693h], 5Fh ; '_'
0x18002c8c9 c6 84 24 94 06 00 00 20 mov     byte ptr [rsp+694h], 20h ; ' '
0x180050685 c6 84 24 95 06 00 00 20 mov     byte ptr [rsp+695h], 20h ; ' '
0x180007454 c6 84 24 96 06 00 00 20 mov     byte ptr [rsp+696h], 20h ; ' '
0x1800170ec c6 84 24 97 06 00 00 20 mov     byte ptr [rsp+697h], 20h ; ' '
0x1800256f8 c6 84 24 98 06 00 00 20 mov     byte ptr [rsp+698h], 20h ; ' '
0x180032d03 c6 84 24 99 06 00 00 20 mov     byte ptr [rsp+699h], 20h ; ' '
0x18002be23 c6 84 24 9a 06 00 00 20 mov     byte ptr [rsp+69Ah], 20h ; ' '
0x180034bf5 c6 84 24 9b 06 00 00 20 mov     byte ptr [rsp+69Bh], 20h ; ' '
0x180058caa c6 84 24 9c 06 00 00 20 mov     byte ptr [rsp+69Ch], 20h ; ' '
0x180009b80 c6 84 24 9d 06 00 00 20 mov     byte ptr [rsp+69Dh], 20h ; ' '
0x18003c40d c6 84 24 9e 06 00 00 20 mov     byte ptr [rsp+69Eh], 20h ; ' '
0x18005ba1b c6 84 24 9f 06 00 00 20 mov     byte ptr [rsp+69Fh], 20h ; ' '
0x18003c933 c6 84 24 a0 06 00 00 20 mov     byte ptr [rsp+6A0h], 20h ; ' '
0x18000160d c6 84 24 a1 06 00 00 20 mov     byte ptr [rsp+6A1h], 20h ; ' '
0x180057c1a c6 84 24 a2 06 00 00 5f mov     byte ptr [rsp+6A2h], 5Fh ; '_'
0x180031131 c6 84 24 a3 06 00 00 5f mov     byte ptr [rsp+6A3h], 5Fh ; '_'
0x18001e8e3 c6 84 24 a4 06 00 00 5f mov     byte ptr [rsp+6A4h], 5Fh ; '_'
0x1800468e8 c6 84 24 a5 06 00 00 5f mov     byte ptr [rsp+6A5h], 5Fh ; '_'
0x180049b86 c6 84 24 a6 06 00 00 5f mov     byte ptr [rsp+6A6h], 5Fh ; '_'
0x180065938 c6 84 24 a7 06 00 00 20 mov     byte ptr [rsp+6A7h], 20h ; ' '
0x18000bee6 c6 84 24 a8 06 00 00 5f mov     byte ptr [rsp+6A8h], 5Fh ; '_'
0x180057e0d c6 84 24 a9 06 00 00 20 mov     byte ptr [rsp+6A9h], 20h ; ' '
0x18000ea99 c6 84 24 aa 06 00 00 20 mov     byte ptr [rsp+6AAh], 20h ; ' '
0x1800248af c6 84 24 ab 06 00 00 20 mov     byte ptr [rsp+6ABh], 20h ; ' '
0x180009962 c6 84 24 ac 06 00 00 20 mov     byte ptr [rsp+6ACh], 20h ; ' '
0x18002e4c8 c6 84 24 ad 06 00 00 20 mov     byte ptr [rsp+6ADh], 20h ; ' '
0x180012137 c6 84 24 ae 06 00 00 20 mov     byte ptr [rsp+6AEh], 20h ; ' '
0x18004f672 c6 84 24 af 06 00 00 20 mov     byte ptr [rsp+6AFh], 20h ; ' '
0x180065ca4 c6 84 24 b0 06 00 00 20 mov     byte ptr [rsp+6B0h], 20h ; ' '
0x180047ec6 c6 84 24 b1 06 00 00 20 mov     byte ptr [rsp+6B1h], 20h ; ' '
0x1800486f0 c6 84 24 b2 06 00 00 20 mov     [rsp+arg_6A2], 20h ; ' '
0x18001b0f0 c6 84 24 b3 06 00 00 5f mov     [rsp+arg_6AB], 5Fh ; '_'
0x180005ac4 c6 84 24 b4 06 00 00 20 mov     byte ptr [rsp+6B4h], 20h ; ' '
0x1800282da c6 84 24 b5 06 00 00 5f mov     byte ptr [rsp+6B5h], 5Fh ; '_'
0x180064106 c6 84 24 b6 06 00 00 20 mov     byte ptr [rsp+6B6h], 20h ; ' '
0x18000657b c6 84 24 b7 06 00 00 0d mov     byte ptr [rsp+6B7h], 0Dh
0x18001179f c6 84 24 b8 06 00 00 0a mov     byte ptr [rsp+6B8h], 0Ah
0x18001ab4f c6 84 24 b9 06 00 00 20 mov     byte ptr [rsp+6B9h], 20h ; ' '
0x18002a1af c6 84 24 ba 06 00 00 5c mov     byte ptr [rsp+6BAh], 5Ch ; '\'
0x180062185 c6 84 24 bb 06 00 00 20 mov     byte ptr [rsp+6BBh], 20h ; ' '
0x180062b3c c6 84 24 bc 06 00 00 5c mov     byte ptr [rsp+6BCh], 5Ch ; '\'
0x18001b99f c6 84 24 bd 06 00 00 20 mov     byte ptr [rsp+6BDh], 20h ; ' '
0x18003058f c6 84 24 be 06 00 00 20 mov     byte ptr [rsp+6BEh], 20h ; ' '
0x1800313c7 c6 84 24 bf 06 00 00 20 mov     byte ptr [rsp+6BFh], 20h ; ' '
0x180034358 c6 84 24 c0 06 00 00 2f mov     byte ptr [rsp+6C0h], 2Fh ; '/'
0x18004a302 c6 84 24 c1 06 00 00 20 mov     byte ptr [rsp+6C1h], 20h ; ' '
0x1800058fb c6 84 24 c2 06 00 00 2f mov     byte ptr [rsp+6C2h], 2Fh ; '/'
0x180064fa2 c6 84 24 c3 06 00 00 20 mov     byte ptr [rsp+6C3h], 20h ; ' '
0x18003b776 c6 84 24 c4 06 00 00 5f mov     byte ptr [rsp+6C4h], 5Fh ; '_'
0x180033295 c6 84 24 c5 06 00 00 20 mov     byte ptr [rsp+6C5h], 20h ; ' '
0x18002fe4b c6 84 24 c6 06 00 00 5c mov     byte ptr [rsp+6C6h], 5Ch ; '\'
0x18001de26 c6 84 24 c7 06 00 00 20 mov     byte ptr [rsp+6C7h], 20h ; ' '
0x180054d05 c6 84 24 c8 06 00 00 20 mov     byte ptr [rsp+6C8h], 20h ; ' '
0x180020651 c6 84 24 c9 06 00 00 20 mov     byte ptr [rsp+6C9h], 20h ; ' '
0x18003a6eb c6 84 24 ca 06 00 00 20 mov     byte ptr [rsp+6CAh], 20h ; ' '
0x180004fb7 c6 84 24 cb 06 00 00 7c mov     byte ptr [rsp+6CBh], 7Ch ; '|'
0x180042585 c6 84 24 cc 06 00 00 20 mov     byte ptr [rsp+6CCh], 20h ; ' '
0x18003b491 c6 84 24 cd 06 00 00 7c mov     byte ptr [rsp+6CDh], 7Ch ; '|'
0x18002a03e c6 84 24 ce 06 00 00 20 mov     byte ptr [rsp+6CEh], 20h ; ' '
0x18005c0b1 c6 84 24 cf 06 00 00 20 mov     byte ptr [rsp+6CFh], 20h ; ' '
0x1800520b4 c6 84 24 d0 06 00 00 20 mov     byte ptr [rsp+6D0h], 20h ; ' '
0x180063f80 c6 84 24 d1 06 00 00 20 mov     byte ptr [rsp+6D1h], 20h ; ' '
0x180052dab c6 84 24 d2 06 00 00 20 mov     byte ptr [rsp+6D2h], 20h ; ' '
0x18004d0b2 c6 84 24 d3 06 00 00 20 mov     byte ptr [rsp+6D3h], 20h ; ' '
0x1800078ca c6 84 24 d4 06 00 00 20 mov     byte ptr [rsp+6D4h], 20h ; ' '
0x180023c4a c6 84 24 d5 06 00 00 20 mov     [rsp+8+arg_6C5], 20h ; ' '
0x1800234a5 c6 84 24 d6 06 00 00 20 mov     [rsp+8+arg_6BE], 20h ; ' '
0x18004fbf5 c6 84 24 d7 06 00 00 20 mov     [rsp+8+arg_6BF], 20h ; ' '
0x18003766d c6 84 24 d8 06 00 00 20 mov     [rsp+8+arg_6C8], 20h ; ' '
0x1800045f7 c6 84 24 d9 06 00 00 20 mov     byte ptr [rsp+6D9h], 20h ; ' '
0x1800420bb c6 84 24 da 06 00 00 2f mov     byte ptr [rsp+6DAh], 2Fh ; '/'
0x1800482bf c6 84 24 db 06 00 00 20 mov     byte ptr [rsp+6DBh], 20h ; ' '
0x1800358b2 c6 84 24 dc 06 00 00 5f mov     byte ptr [rsp+6DCh], 5Fh ; '_'
0x18002ae69 c6 84 24 dd 06 00 00 5f mov     byte ptr [rsp+6DDh], 5Fh ; '_'
0x18001b2db c6 84 24 de 06 00 00 5f mov     byte ptr [rsp+6DEh], 5Fh ; '_'
0x18005219f c6 84 24 df 06 00 00 5f mov     byte ptr [rsp+6DFh], 5Fh ; '_'
0x180043646 c6 84 24 e0 06 00 00 7c mov     byte ptr [rsp+6E0h], 7Ch ; '|'
0x18001b037 c6 84 24 e1 06 00 00 20 mov     byte ptr [rsp+6E1h], 20h ; ' '
0x180004c2d c6 84 24 e2 06 00 00 7c mov     byte ptr [rsp+6E2h], 7Ch ; '|'
0x180024a1d c6 84 24 e3 06 00 00 20 mov     byte ptr [rsp+6E3h], 20h ; ' '
0x180050810 c6 84 24 e4 06 00 00 20 mov     byte ptr [rsp+6E4h], 20h ; ' '
0x18000feb7 c6 84 24 e5 06 00 00 20 mov     byte ptr [rsp+6E5h], 20h ; ' '
0x18005c06b c6 84 24 e6 06 00 00 20 mov     byte ptr [rsp+6E6h], 20h ; ' '
0x1800187e2 c6 84 24 e7 06 00 00 20 mov     byte ptr [rsp+6E7h], 20h ; ' '
0x18005e3dc c6 84 24 e8 06 00 00 20 mov     byte ptr [rsp+6E8h], 20h ; ' '
0x18000af83 c6 84 24 e9 06 00 00 20 mov     byte ptr [rsp+6E9h], 20h ; ' '
0x18002d53b c6 84 24 ea 06 00 00 20 mov     byte ptr [rsp+6EAh], 20h ; ' '
0x1800655b0 c6 84 24 eb 06 00 00 7c mov     byte ptr [rsp+6EBh], 7Ch ; '|'
0x18000ca85 c6 84 24 ec 06 00 00 20 mov     byte ptr [rsp+6ECh], 20h ; ' '
0x18005b04e c6 84 24 ed 06 00 00 7c mov     byte ptr [rsp+6EDh], 7Ch ; '|'
0x1800319b3 c6 84 24 ee 06 00 00 20 mov     byte ptr [rsp+6EEh], 20h ; ' '
0x18000b2b1 c6 84 24 ef 06 00 00 7c mov     byte ptr [rsp+6EFh], 7Ch ; '|'
0x18000892b c6 84 24 f0 06 00 00 0d mov     byte ptr [rsp+6F0h], 0Dh
0x18005c92f c6 84 24 f1 06 00 00 0a mov     byte ptr [rsp+6F1h], 0Ah
0x180025dcc c6 84 24 f2 06 00 00 20 mov     byte ptr [rsp+6F2h], 20h ; ' '
0x180021a40 c6 84 24 f3 06 00 00 20 mov     byte ptr [rsp+6F3h], 20h ; ' '
0x180010b07 c6 84 24 f4 06 00 00 5c mov     byte ptr [rsp+6F4h], 5Ch ; '\'
0x1800497e3 c6 84 24 f5 06 00 00 20 mov     byte ptr [rsp+6F5h], 20h ; ' '
0x18005d546 c6 84 24 f6 06 00 00 5c mov     byte ptr [rsp+6F6h], 5Ch ; '\'
0x180018e92 c6 84 24 f7 06 00 00 5f mov     byte ptr [rsp+6F7h], 5Fh ; '_'
0x180053673 c6 84 24 f8 06 00 00 2f mov     byte ptr [rsp+6F8h], 2Fh ; '/'
0x1800589f8 c6 84 24 f9 06 00 00 20 mov     byte ptr [rsp+6F9h], 20h ; ' '
0x180057147 c6 84 24 fa 06 00 00 2f mov     byte ptr [rsp+6FAh], 2Fh ; '/'
0x18001df82 c6 84 24 fb 06 00 00 20 mov     byte ptr [rsp+6FBh], 20h ; ' '
0x180015e9c c6 84 24 fc 06 00 00 7c mov     byte ptr [rsp+6FCh], 7Ch ; '|'
0x180011c13 c6 84 24 fd 06 00 00 20 mov     byte ptr [rsp+6FDh], 20h ; ' '
0x18000b852 c6 84 24 fe 06 00 00 7c mov     byte ptr [rsp+6FEh], 7Ch ; '|'
0x18004eb09 c6 84 24 ff 06 00 00 20 mov     byte ptr [rsp+6FFh], 20h ; ' '
0x180049d02 c6 84 24 00 07 00 00 7c mov     byte ptr [rsp+700h], 7Ch ; '|'
0x1800022a2 c6 84 24 01 07 00 00 20 mov     byte ptr [rsp+701h], 20h ; ' '
0x1800506ef c6 84 24 02 07 00 00 5f mov     byte ptr [rsp+702h], 5Fh ; '_'
0x18004f8db c6 84 24 03 07 00 00 5f mov     byte ptr [rsp+703h], 5Fh ; '_'
0x18003bb7d c6 84 24 04 07 00 00 7c mov     byte ptr [rsp+704h], 7Ch ; '|'
0x180053bf9 c6 84 24 05 07 00 00 20 mov     byte ptr [rsp+705h], 20h ; ' '
0x180025e50 c6 84 24 06 07 00 00 7c mov     byte ptr [rsp+706h], 7Ch ; '|'
0x180064788 c6 84 24 07 07 00 00 20 mov     byte ptr [rsp+707h], 20h ; ' '
0x18003adbd c6 84 24 08 07 00 00 5f mov     byte ptr [rsp+708h], 5Fh ; '_'
0x18005ed51 c6 84 24 09 07 00 00 5f mov     byte ptr [rsp+709h], 5Fh ; '_'
0x180033ebd c6 84 24 0a 07 00 00 20 mov     byte ptr [rsp+70Ah], 20h ; ' '
0x18003a94c c6 84 24 0b 07 00 00 5f mov     byte ptr [rsp+70Bh], 5Fh ; '_'
0x1800551ac c6 84 24 0c 07 00 00 20 mov     byte ptr [rsp+70Ch], 20h ; ' '
0x18004c942 c6 84 24 0d 07 00 00 5f mov     byte ptr [rsp+70Dh], 5Fh ; '_'
0x1800148c3 c6 84 24 0e 07 00 00 5f mov     [rsp+10h+arg_6F6], 5Fh ; '_'
0x180006f50 c6 84 24 0f 07 00 00 5f mov     [rsp+10h+arg_6EF], 5Fh ; '_'
0x180011a1d c6 84 24 10 07 00 00 5f mov     [rsp+10h+arg_6F0], 5Fh ; '_'
0x18004895b c6 84 24 11 07 00 00 5f mov     [rsp+10h+arg_6F1], 5Fh ; '_'
0x18002dce1 c6 84 24 12 07 00 00 7c mov     [rsp+10h+arg_6FA], 7Ch ; '|'
0x18000e8b7 c6 84 24 13 07 00 00 20 mov     [rsp+10h+arg_6F3], 20h ; ' '
0x180065ba0 c6 84 24 14 07 00 00 28 mov     [rsp+10h+arg_6F4], 28h ; '('
0x180004961 c6 84 24 15 07 00 00 5f mov     byte ptr [rsp+715h], 5Fh ; '_'
0x18005a802 c6 84 24 16 07 00 00 5f mov     byte ptr [rsp+716h], 5Fh ; '_'
0x180018725 c6 84 24 17 07 00 00 5f mov     byte ptr [rsp+717h], 5Fh ; '_'
0x18003293a c6 84 24 18 07 00 00 20 mov     byte ptr [rsp+718h], 20h ; ' '
0x18000dd7e c6 84 24 19 07 00 00 7c mov     byte ptr [rsp+719h], 7Ch ; '|'
0x18004f105 c6 84 24 1a 07 00 00 20 mov     byte ptr [rsp+71Ah], 20h ; ' '
0x18001372a c6 84 24 1b 07 00 00 7c mov     byte ptr [rsp+71Bh], 7Ch ; '|'
0x18003ffb8 c6 84 24 1c 07 00 00 5f mov     byte ptr [rsp+71Ch], 5Fh ; '_'
0x180042f53 c6 84 24 1d 07 00 00 5f mov     byte ptr [rsp+71Dh], 5Fh ; '_'
0x180030121 c6 84 24 1e 07 00 00 20 mov     byte ptr [rsp+71Eh], 20h ; ' '
0x180040f23 c6 84 24 1f 07 00 00 20 mov     byte ptr [rsp+71Fh], 20h ; ' '
0x18000f037 c6 84 24 20 07 00 00 20 mov     byte ptr [rsp+720h], 20h ; ' '
0x180049630 c6 84 24 21 07 00 00 5f mov     byte ptr [rsp+721h], 5Fh ; '_'
0x18000adfa c6 84 24 22 07 00 00 5f mov     byte ptr [rsp+722h], 5Fh ; '_'
0x18005b8a2 c6 84 24 23 07 00 00 5f mov     byte ptr [rsp+723h], 5Fh ; '_'
0x180050110 c6 84 24 24 07 00 00 7c mov     byte ptr [rsp+724h], 7Ch ; '|'
0x180001d87 c6 84 24 25 07 00 00 20 mov     byte ptr [rsp+725h], 20h ; ' '
0x18004e167 c6 84 24 26 07 00 00 7c mov     byte ptr [rsp+726h], 7Ch ; '|'
0x18001adfd c6 84 24 27 07 00 00 20 mov     byte ptr [rsp+727h], 20h ; ' '
0x1800557c8 c6 84 24 28 07 00 00 7c mov     byte ptr [rsp+728h], 7Ch ; '|'
0x1800139e4 c6 84 24 29 07 00 00 0d mov     byte ptr [rsp+729h], 0Dh
0x18001b3bf c6 84 24 2a 07 00 00 0a mov     byte ptr [rsp+72Ah], 0Ah
0x18001fddc c6 84 24 2b 07 00 00 20 mov     byte ptr [rsp+72Bh], 20h ; ' '
0x18000a635 c6 84 24 2c 07 00 00 20 mov     byte ptr [rsp+72Ch], 20h ; ' '
0x18003d4c1 c6 84 24 2d 07 00 00 20 mov     byte ptr [rsp+72Dh], 20h ; ' '
0x180057a0c c6 84 24 2e 07 00 00 5c mov     byte ptr [rsp+72Eh], 5Ch ; '\'
0x1800033b0 c6 84 24 2f 07 00 00 20 mov     byte ptr [rsp+72Fh], 20h ; ' '
0x180061c50 c6 84 24 30 07 00 00 20 mov     byte ptr [rsp+730h], 20h ; ' '
0x18003c1d9 c6 84 24 31 07 00 00 20 mov     byte ptr [rsp+731h], 20h ; ' '
0x180043e68 c6 84 24 32 07 00 00 2f mov     byte ptr [rsp+732h], 2Fh ; '/'
0x1800174c8 c6 84 24 33 07 00 00 7c mov     byte ptr [rsp+733h], 7Ch ; '|'
0x180031c97 c6 84 24 34 07 00 00 20 mov     byte ptr [rsp+734h], 20h ; ' '
0x180010fc4 c6 84 24 35 07 00 00 7c mov     byte ptr [rsp+735h], 7Ch ; '|'
0x180009aba c6 84 24 36 07 00 00 20 mov     byte ptr [rsp+736h], 20h ; ' '
0x180011076 c6 84 24 37 07 00 00 7c mov     byte ptr [rsp+737h], 7Ch ; '|'
0x1800054ef c6 84 24 38 07 00 00 20 mov     byte ptr [rsp+738h], 20h ; ' '
0x18004cbae c6 84 24 39 07 00 00 7c mov     byte ptr [rsp+739h], 7Ch ; '|'
0x180050e28 c6 84 24 3a 07 00 00 2f mov     byte ptr [rsp+73Ah], 2Fh ; '/'
0x180055286 c6 84 24 3b 07 00 00 20 mov     byte ptr [rsp+73Bh], 20h ; ' '
0x18003c975 c6 84 24 3c 07 00 00 5f mov     byte ptr [rsp+73Ch], 5Fh ; '_'
0x18006106f c6 84 24 3d 07 00 00 60 mov     byte ptr [rsp+73Dh], 60h ; '`'
0x180007302 c6 84 24 3e 07 00 00 20 mov     byte ptr [rsp+73Eh], 20h ; ' '
0x180044a58 c6 84 24 3f 07 00 00 7c mov     byte ptr [rsp+73Fh], 7Ch ; '|'
0x1800025ba c6 84 24 40 07 00 00 2f mov     byte ptr [rsp+740h], 2Fh ; '/'
0x18004f348 c6 84 24 41 07 00 00 20 mov     byte ptr [rsp+741h], 20h ; ' '
0x1800077ed c6 84 24 42 07 00 00 5f mov     byte ptr [rsp+742h], 5Fh ; '_'
0x1800360a4 c6 84 24 43 07 00 00 60 mov     byte ptr [rsp+743h], 60h ; '`'
0x180009ae7 c6 84 24 44 07 00 00 20 mov     byte ptr [rsp+744h], 20h ; ' '
0x180011ce7 c6 84 24 45 07 00 00 7c mov     byte ptr [rsp+745h], 7Ch ; '|'
0x1800395a1 c6 84 24 46 07 00 00 5f mov     byte ptr [rsp+746h], 5Fh ; '_'
0x180003181 c6 84 24 47 07 00 00 5f mov     byte ptr [rsp+747h], 5Fh ; '_'
0x18003bf8d c6 84 24 48 07 00 00 5f mov     byte ptr [rsp+748h], 5Fh ; '_'
0x180003f13 c6 84 24 49 07 00 00 5f mov     byte ptr [rsp+749h], 5Fh ; '_'
0x18005893c c6 84 24 4a 07 00 00 5f mov     byte ptr [rsp+74Ah], 5Fh ; '_'
0x18005dd46 c6 84 24 4b 07 00 00 5f mov     byte ptr [rsp+74Bh], 5Fh ; '_'
0x18005dc6e c6 84 24 4c 07 00 00 5c mov     byte ptr [rsp+74Ch], 5Ch ; '\'
0x18002ea7c c6 84 24 4d 07 00 00 5f mov     byte ptr [rsp+74Dh], 5Fh ; '_'
0x180032efc c6 84 24 4e 07 00 00 5f mov     byte ptr [rsp+74Eh], 5Fh ; '_'
0x18003ff84 c6 84 24 4f 07 00 00 5f mov     byte ptr [rsp+74Fh], 5Fh ; '_'
0x180065b15 c6 84 24 50 07 00 00 20 mov     byte ptr [rsp+750h], 20h ; ' '
0x180059837 c6 84 24 51 07 00 00 5c mov     byte ptr [rsp+751h], 5Ch ; '\'
0x18003c6e4 c6 84 24 52 07 00 00 7c mov     byte ptr [rsp+752h], 7Ch ; '|'
0x18000d3d2 c6 84 24 53 07 00 00 20 mov     byte ptr [rsp+753h], 20h ; ' '
0x18004ef84 c6 84 24 54 07 00 00 27 mov     byte ptr [rsp+754h], 27h ; '''
0x18005562d c6 84 24 55 07 00 00 5f mov     byte ptr [rsp+755h], 5Fh ; '_'
0x18002fe80 c6 84 24 56 07 00 00 20 mov     byte ptr [rsp+756h], 20h ; ' '
0x18003af00 c6 84 24 57 07 00 00 5c mov     byte ptr [rsp+757h], 5Ch ; '\'
0x1800059a0 c6 84 24 58 07 00 00 20 mov     byte ptr [rsp+758h], 20h ; ' '
0x18003a14d c6 84 24 59 07 00 00 2f mov     byte ptr [rsp+759h], 2Fh ; '/'
0x180028362 c6 84 24 5a 07 00 00 20 mov     byte ptr [rsp+75Ah], 20h ; ' '
0x18003c1ad c6 84 24 5b 07 00 00 5f mov     byte ptr [rsp+75Bh], 5Fh ; '_'
0x18003c20c c6 84 24 5c 07 00 00 20 mov     byte ptr [rsp+75Ch], 20h ; ' '
0x180003361 c6 84 24 5d 07 00 00 5c mov     byte ptr [rsp+75Dh], 5Ch ; '\'
0x180060caf c6 84 24 5e 07 00 00 20 mov     byte ptr [rsp+75Eh], 20h ; ' '
0x180008999 c6 84 24 5f 07 00 00 7c mov     byte ptr [rsp+75Fh], 7Ch ; '|'
0x180046992 c6 84 24 60 07 00 00 20 mov     byte ptr [rsp+760h], 20h ; ' '
0x180048e23 c6 84 24 61 07 00 00 7c mov     byte ptr [rsp+761h], 7Ch ; '|'
0x1800485fc c6 84 24 62 07 00 00 0d mov     byte ptr [rsp+762h], 0Dh
0x180016e1a c6 84 24 63 07 00 00 0a mov     byte ptr [rsp+763h], 0Ah
0x180051770 c6 84 24 64 07 00 00 20 mov     byte ptr [rsp+764h], 20h ; ' '
0x180034052 c6 84 24 65 07 00 00 20 mov     byte ptr [rsp+765h], 20h ; ' '
0x180034e3c c6 84 24 66 07 00 00 20 mov     byte ptr [rsp+766h], 20h ; ' '
0x18005b836 c6 84 24 67 07 00 00 20 mov     byte ptr [rsp+767h], 20h ; ' '
0x1800541d9 c6 84 24 68 07 00 00 7c mov     byte ptr [rsp+768h], 7Ch ; '|'
0x18004867b c6 84 24 69 07 00 00 20 mov     byte ptr [rsp+769h], 20h ; ' '
0x180048394 c6 84 24 6a 07 00 00 7c mov     byte ptr [rsp+76Ah], 7Ch ; '|'
0x18003c7e5 c6 84 24 6b 07 00 00 20 mov     byte ptr [rsp+76Bh], 20h ; ' '
0x18003bd86 c6 84 24 6c 07 00 00 7c mov     byte ptr [rsp+76Ch], 7Ch ; '|'
0x1800300d4 c6 84 24 6d 07 00 00 20 mov     byte ptr [rsp+76Dh], 20h ; ' '
0x180008805 c6 84 24 6e 07 00 00 7c mov     byte ptr [rsp+76Eh], 7Ch ; '|'
0x1800312a3 c6 84 24 6f 07 00 00 5f mov     byte ptr [rsp+76Fh], 5Fh ; '_'
0x180013e04 c6 84 24 70 07 00 00 7c mov     byte ptr [rsp+770h], 7Ch ; '|'
0x180011278 c6 84 24 71 07 00 00 20 mov     byte ptr [rsp+771h], 20h ; ' '
0x1800294ab c6 84 24 72 07 00 00 7c mov     byte ptr [rsp+772h], 7Ch ; '|'
0x180017355 c6 84 24 73 07 00 00 20 mov     byte ptr [rsp+773h], 20h ; ' '
0x18000b611 c6 84 24 74 07 00 00 28 mov     byte ptr [rsp+774h], 28h ; '('
0x18005df81 c6 84 24 75 07 00 00 5f mov     byte ptr [rsp+775h], 5Fh ; '_'
0x18004ce85 c6 84 24 76 07 00 00 7c mov     byte ptr [rsp+776h], 7Ch ; '|'
0x18002800c c6 84 24 77 07 00 00 20 mov     byte ptr [rsp+777h], 20h ; ' '
0x1800341d9 c6 84 24 78 07 00 00 7c mov     byte ptr [rsp+778h], 7Ch ; '|'
0x18004d72f c6 84 24 79 07 00 00 20 mov     byte ptr [rsp+779h], 20h ; ' '
0x18005668a c6 84 24 7a 07 00 00 28 mov     [rsp+28h+arg_742], 28h ; '('
0x180012e3a c6 84 24 7b 07 00 00 5f mov     [rsp+28h+arg_743], 5Fh ; '_'
0x18003d7ee c6 84 24 7c 07 00 00 7c mov     [rsp+28h+arg_744], 7Ch ; '|'
0x180028d31 c6 84 24 7d 07 00 00 20 mov     [rsp+28h+arg_745], 20h ; ' '
0x18004c00c c6 84 24 7e 07 00 00 7c mov     [rsp+28h+arg_746], 7Ch ; '|'
0x18001dcb5 c6 84 24 7f 07 00 00 20 mov     [rsp+28h+arg_747], 20h ; ' '
0x1800293ad c6 84 24 80 07 00 00 20 mov     [rsp+28h+arg_748], 20h ; ' '
0x18001af5d c6 84 24 81 07 00 00 20 mov     [rsp+28h+arg_749], 20h ; ' '
0x18000f298 c6 84 24 82 07 00 00 20 mov     [rsp+28h+arg_74A], 20h ; ' '
0x18003103c c6 84 24 83 07 00 00 20 mov     [rsp+28h+arg_74B], 20h ; ' '
0x18000c7fb c6 84 24 84 07 00 00 20 mov     byte ptr [rsp+784h], 20h ; ' '
0x18005b90e c6 84 24 85 07 00 00 5f mov     byte ptr [rsp+785h], 5Fh ; '_'
0x18000bcee c6 84 24 86 07 00 00 5f mov     byte ptr [rsp+786h], 5Fh ; '_'
0x1800375b3 c6 84 24 87 07 00 00 5f mov     byte ptr [rsp+787h], 5Fh ; '_'
0x18000673e c6 84 24 88 07 00 00 5f mov     byte ptr [rsp+788h], 5Fh ; '_'
0x180032042 c6 84 24 89 07 00 00 29 mov     byte ptr [rsp+789h], 29h ; ')'
0x180018a9a c6 84 24 8a 07 00 00 20 mov     byte ptr [rsp+78Ah], 20h ; ' '
0x180037393 c6 84 24 8b 07 00 00 7c mov     byte ptr [rsp+78Bh], 7Ch ; '|'
0x180004f14 c6 84 24 8c 07 00 00 20 mov     byte ptr [rsp+78Ch], 20h ; ' '
0x180006dce c6 84 24 8d 07 00 00 7c mov     byte ptr [rsp+78Dh], 7Ch ; '|'
0x180036124 c6 84 24 8e 07 00 00 20 mov     byte ptr [rsp+78Eh], 20h ; ' '
0x180056cff c6 84 24 8f 07 00 00 7c mov     byte ptr [rsp+78Fh], 7Ch ; '|'
0x180042a3f c6 84 24 90 07 00 00 20 mov     byte ptr [rsp+790h], 20h ; ' '
0x1800587b4 c6 84 24 91 07 00 00 7c mov     byte ptr [rsp+791h], 7Ch ; '|'
0x18005181b c6 84 24 92 07 00 00 20 mov     byte ptr [rsp+792h], 20h ; ' '
0x180056a55 c6 84 24 93 07 00 00 20 mov     byte ptr [rsp+793h], 20h ; ' '
0x18004f87f c6 84 24 94 07 00 00 5f mov     byte ptr [rsp+794h], 5Fh ; '_'
0x180060ef9 c6 84 24 95 07 00 00 5f mov     byte ptr [rsp+795h], 5Fh ; '_'
0x18001bf23 c6 84 24 96 07 00 00 2f mov     byte ptr [rsp+796h], 2Fh ; '/'
0x1800596ab c6 84 24 97 07 00 00 20 mov     byte ptr [rsp+797h], 20h ; ' '
0x180046145 c6 84 24 98 07 00 00 7c mov     byte ptr [rsp+798h], 7Ch ; '|'
0x18003180e c6 84 24 99 07 00 00 20 mov     byte ptr [rsp+799h], 20h ; ' '
0x18001b43d c6 84 24 9a 07 00 00 7c mov     byte ptr [rsp+79Ah], 7Ch ; '|'
0x180001989 c6 84 24 9b 07 00 00 0d mov     byte ptr [rsp+79Bh], 0Dh
0x1800595e0 c6 84 24 9c 07 00 00 0a mov     byte ptr [rsp+79Ch], 0Ah
0x18000689b c6 84 24 9d 07 00 00 20 mov     byte ptr [rsp+79Dh], 20h ; ' '
0x18002123d c6 84 24 9e 07 00 00 20 mov     byte ptr [rsp+79Eh], 20h ; ' '
0x180007837 c6 84 24 9f 07 00 00 20 mov     byte ptr [rsp+79Fh], 20h ; ' '
0x180058989 c6 84 24 a0 07 00 00 20 mov     byte ptr [rsp+7A0h], 20h ; ' '
0x180062f43 c6 84 24 a1 07 00 00 7c mov     byte ptr [rsp+7A1h], 7Ch ; '|'
0x180020a55 c6 84 24 a2 07 00 00 5f mov     byte ptr [rsp+7A2h], 5Fh ; '_'
0x180029bc2 c6 84 24 a3 07 00 00 7c mov     byte ptr [rsp+7A3h], 7Ch ; '|'
0x180065d8b c6 84 24 a4 07 00 00 20 mov     byte ptr [rsp+7A4h], 20h ; ' '
0x18000407b c6 84 24 a5 07 00 00 20 mov     byte ptr [rsp+7A5h], 20h ; ' '
0x1800329ce c6 84 24 a6 07 00 00 5c mov     byte ptr [rsp+7A6h], 5Ch ; '\'
0x18002c672 c6 84 24 a7 07 00 00 5f mov     byte ptr [rsp+7A7h], 5Fh ; '_'
0x18001b589 c6 84 24 a8 07 00 00 5f mov     byte ptr [rsp+7A8h], 5Fh ; '_'
0x18002c5cb c6 84 24 a9 07 00 00 5f mov     byte ptr [rsp+7A9h], 5Fh ; '_'
0x180008688 c6 84 24 aa 07 00 00 2f mov     byte ptr [rsp+7AAh], 2Fh ; '/'
0x180038879 c6 84 24 ab 07 00 00 20 mov     byte ptr [rsp+7ABh], 20h ; ' '
0x180016260 c6 84 24 ac 07 00 00 5c mov     byte ptr [rsp+7ACh], 5Ch ; '\'
0x180007e05 c6 84 24 ad 07 00 00 5f mov     byte ptr [rsp+7ADh], 5Fh ; '_'
0x18005b602 c6 84 24 ae 07 00 00 5f mov     byte ptr [rsp+7AEh], 5Fh ; '_'
0x18001d763 c6 84 24 af 07 00 00 2c mov     byte ptr [rsp+7AFh], 2Ch ; ','
0x1800427b1 c6 84 24 b0 07 00 00 5f mov     byte ptr [rsp+7B0h], 5Fh ; '_'
0x180029e5d c6 84 24 b1 07 00 00 7c mov     byte ptr [rsp+7B1h], 7Ch ; '|'
0x180056287 c6 84 24 b2 07 00 00 5c mov     byte ptr [rsp+7B2h], 5Ch ; '\'
0x180010130 c6 84 24 b3 07 00 00 5f mov     byte ptr [rsp+7B3h], 5Fh ; '_'
0x180057dba c6 84 24 b4 07 00 00 5f mov     byte ptr [rsp+7B4h], 5Fh ; '_'
0x1800060cb c6 84 24 b5 07 00 00 2c mov     byte ptr [rsp+7B5h], 2Ch ; ','
0x18003eb63 c6 84 24 b6 07 00 00 5f mov     byte ptr [rsp+7B6h], 5Fh ; '_'
0x18001013e c6 84 24 b7 07 00 00 7c mov     byte ptr [rsp+7B7h], 7Ch ; '|'
0x1800583a9 c6 84 24 b8 07 00 00 20 mov     byte ptr [rsp+7B8h], 20h ; ' '
0x1800267d0 c6 84 24 b9 07 00 00 20 mov     byte ptr [rsp+7B9h], 20h ; ' '
0x180030953 c6 84 24 ba 07 00 00 20 mov     byte ptr [rsp+7BAh], 20h ; ' '
0x1800323e1 c6 84 24 bb 07 00 00 20 mov     byte ptr [rsp+7BBh], 20h ; ' '
0x18002df65 c6 84 24 bc 07 00 00 20 mov     byte ptr [rsp+7BCh], 20h ; ' '
0x18003d656 c6 84 24 bd 07 00 00 7c mov     byte ptr [rsp+7BDh], 7Ch ; '|'
0x18003f705 c6 84 24 be 07 00 00 5f mov     byte ptr [rsp+7BEh], 5Fh ; '_'
0x180029cf9 c6 84 24 bf 07 00 00 5f mov     byte ptr [rsp+7BFh], 5Fh ; '_'
0x18001da63 c6 84 24 c0 07 00 00 5f mov     byte ptr [rsp+7C0h], 5Fh ; '_'
0x180064dfb c6 84 24 c1 07 00 00 5f mov     byte ptr [rsp+7C1h], 5Fh ; '_'
0x180034eaa c6 84 24 c2 07 00 00 5f mov     byte ptr [rsp+7C2h], 5Fh ; '_'
0x18005f190 c6 84 24 c3 07 00 00 2f mov     byte ptr [rsp+7C3h], 2Fh ; '/'
0x18002e313 c6 84 24 c4 07 00 00 7c mov     byte ptr [rsp+7C4h], 7Ch ; '|'
0x180064b58 c6 84 24 c5 07 00 00 5f mov     byte ptr [rsp+7C5h], 5Fh ; '_'
0x1800187ca c6 84 24 c6 07 00 00 7c mov     byte ptr [rsp+7C6h], 7Ch ; '|'
0x1800098cd c6 84 24 c7 07 00 00 20 mov     byte ptr [rsp+7C7h], 20h ; ' '
0x180035ed6 c6 84 24 c8 07 00 00 7c mov     byte ptr [rsp+7C8h], 7Ch ; '|'
0x18003d48e c6 84 24 c9 07 00 00 5f mov     byte ptr [rsp+7C9h], 5Fh ; '_'
0x18004dfb0 c6 84 24 ca 07 00 00 7c mov     byte ptr [rsp+7CAh], 7Ch ; '|'
0x180052f1b c6 84 24 cb 07 00 00 5c mov     byte ptr [rsp+7CBh], 5Ch ; '\'
0x1800201e7 c6 84 24 cc 07 00 00 5f mov     byte ptr [rsp+7CCh], 5Fh ; '_'
0x180040e45 c6 84 24 cd 07 00 00 5f mov     byte ptr [rsp+7CDh], 5Fh ; '_'
0x18003ff17 c6 84 24 ce 07 00 00 5f mov     byte ptr [rsp+7CEh], 5Fh ; '_'
0x180058848 c6 84 24 cf 07 00 00 7c mov     [rsp+28h+arg_797], 7Ch ; '|'
0x18004a0bf c6 84 24 d0 07 00 00 5f mov     [rsp+28h+arg_798], 5Fh ; '_'
0x180002f0a c6 84 24 d1 07 00 00 7c mov     [rsp+28h+arg_799], 7Ch ; '|'
0x180039657 c6 84 24 d2 07 00 00 5f mov     [rsp+28h+arg_79A], 5Fh ; '_'
0x180022f30 c6 84 24 d3 07 00 00 7c mov     [rsp+28h+arg_79B], 7Ch ; '|'
0x180047e0a c6 84 24 d4 07 00 00 0d mov     [rsp+28h+arg_79C], 0Dh
0x180029c12 c6 84 24 d5 07 00 00 0a mov     [rsp+28h+arg_79D], 0Ah
0x1800021a5 c6 84 24 d6 07 00 00 20 mov     [rsp+28h+arg_79E], 20h ; ' '
0x18003bc5c c6 84 24 d7 07 00 00 20 mov     [rsp+28h+arg_79F], 20h ; ' '
0x18006249f c6 84 24 d8 07 00 00 20 mov     [rsp+28h+arg_7A0], 20h ; ' '
0x180023665 c6 84 24 d9 07 00 00 20 mov     [rsp+28h+arg_7A1], 20h ; ' '
0x18002d197 c6 84 24 da 07 00 00 20 mov     [rsp+18h+arg_7BA], 20h ; ' '
0x180039366 c6 84 24 db 07 00 00 20 mov     [rsp+18h+arg_7BB], 20h ; ' '
0x1800193e8 c6 84 24 dc 07 00 00 20 mov     [rsp+18h+arg_7B4], 20h ; ' '
0x18005332c c6 84 24 dd 07 00 00 20 mov     [rsp+18h+arg_7B5], 20h ; ' '
0x18003b016 c6 84 24 de 07 00 00 20 mov     [rsp+18h+arg_7BE], 20h ; ' '
0x180024b6e c6 84 24 df 07 00 00 20 mov     [rsp+18h+arg_7B7], 20h ; ' '
0x18001dacb c6 84 24 e0 07 00 00 20 mov     [rsp+18h+arg_7B8], 20h ; ' '
0x180056819 c6 84 24 e1 07 00 00 20 mov     [rsp+18h+arg_7B9], 20h ; ' '
0x1800163ec c6 84 24 e2 07 00 00 20 mov     byte ptr [rsp+7E2h], 20h ; ' '
0x18003ee98 c6 84 24 e3 07 00 00 20 mov     byte ptr [rsp+7E3h], 20h ; ' '
0x18004f958 c6 84 24 e4 07 00 00 20 mov     [rsp+18h+arg_7BC], 20h ; ' '
0x18000a7e4 c6 84 24 e5 07 00 00 20 mov     [rsp+38h+arg_7A5], 20h ; ' '
0x18006333c c6 84 24 e6 07 00 00 20 mov     [rsp+38h+arg_79E], 20h ; ' '
0x18005ec15 c6 84 24 e7 07 00 00 20 mov     [rsp+38h+arg_79F], 20h ; ' '
0x18000b18d c6 84 24 e8 07 00 00 20 mov     [rsp+38h+arg_7A8], 20h ; ' '
0x180036006 c6 84 24 e9 07 00 00 20 mov     [rsp+38h+arg_7A9], 20h ; ' '
0x18003800b c6 84 24 ea 07 00 00 20 mov     [rsp+38h+arg_7AA], 20h ; ' '
0x18000552e c6 84 24 eb 07 00 00 20 mov     byte ptr [rsp+7EBh], 20h ; ' '
0x18005c4f7 c6 84 24 ec 07 00 00 20 mov     byte ptr [rsp+7ECh], 20h ; ' '
0x18002d6cb c6 84 24 ed 07 00 00 20 mov     byte ptr [rsp+7EDh], 20h ; ' '
0x1800101c0 c6 84 24 ee 07 00 00 20 mov     byte ptr [rsp+7EEh], 20h ; ' '
0x180061ce8 c6 84 24 ef 07 00 00 20 mov     byte ptr [rsp+7EFh], 20h ; ' '
0x180054f9d c6 84 24 f0 07 00 00 20 mov     byte ptr [rsp+7F0h], 20h ; ' '
0x18004a07d c6 84 24 f1 07 00 00 20 mov     byte ptr [rsp+7F1h], 20h ; ' '
0x180043798 c6 84 24 f2 07 00 00 20 mov     byte ptr [rsp+7F2h], 20h ; ' '
0x18005e8d1 c6 84 24 f3 07 00 00 20 mov     byte ptr [rsp+7F3h], 20h ; ' '
0x18003277a c6 84 24 f4 07 00 00 20 mov     byte ptr [rsp+7F4h], 20h ; ' '
0x180004aed c6 84 24 f5 07 00 00 20 mov     byte ptr [rsp+7F5h], 20h ; ' '
0x18002095b c6 84 24 f6 07 00 00 20 mov     byte ptr [rsp+7F6h], 20h ; ' '
0x180014711 c6 84 24 f7 07 00 00 20 mov     byte ptr [rsp+7F7h], 20h ; ' '
0x180021afc c6 84 24 f8 07 00 00 20 mov     byte ptr [rsp+7F8h], 20h ; ' '
0x18003ce28 c6 84 24 f9 07 00 00 20 mov     byte ptr [rsp+7F9h], 20h ; ' '
0x18005817d c6 84 24 fa 07 00 00 20 mov     byte ptr [rsp+7FAh], 20h ; ' '
0x18003770c c6 84 24 fb 07 00 00 20 mov     byte ptr [rsp+7FBh], 20h ; ' '
0x180013d51 c6 84 24 fc 07 00 00 20 mov     byte ptr [rsp+7FCh], 20h ; ' '
0x18000514a c6 84 24 fd 07 00 00 20 mov     byte ptr [rsp+7FDh], 20h ; ' '
0x18002f705 c6 84 24 fe 07 00 00 20 mov     byte ptr [rsp+7FEh], 20h ; ' '
0x1800328ee c6 84 24 ff 07 00 00 20 mov     byte ptr [rsp+7FFh], 20h ; ' '
0x180039d9b c6 84 24 00 08 00 00 20 mov     byte ptr [rsp+800h], 20h ; ' '
0x18005e796 c6 84 24 01 08 00 00 20 mov     byte ptr [rsp+801h], 20h ; ' '
0x180054c2b c6 84 24 02 08 00 00 20 mov     byte ptr [rsp+802h], 20h ; ' '
0x18003be73 c6 84 24 03 08 00 00 20 mov     byte ptr [rsp+803h], 20h ; ' '
0x18002ba80 c6 84 24 04 08 00 00 20 mov     byte ptr [rsp+804h], 20h ; ' '
0x1800366c0 c6 84 24 05 08 00 00 20 mov     byte ptr [rsp+805h], 20h ; ' '
0x18005dd61 c6 84 24 06 08 00 00 20 mov     byte ptr [rsp+806h], 20h ; ' '
0x180007b50 c6 84 24 07 08 00 00 20 mov     byte ptr [rsp+807h], 20h ; ' '
0x180043fa6 c6 84 24 08 08 00 00 20 mov     byte ptr [rsp+808h], 20h ; ' '
0x18002312b c6 84 24 09 08 00 00 20 mov     byte ptr [rsp+809h], 20h ; ' '
0x1800111ab c6 84 24 0a 08 00 00 20 mov     byte ptr [rsp+80Ah], 20h ; ' '
0x18000dd0e c6 84 24 0b 08 00 00 20 mov     byte ptr [rsp+80Bh], 20h ; ' '
0x1800182a0 c6 84 24 0c 08 00 00 20 mov     byte ptr [rsp+80Ch], 20h ; ' '
0x18003b785 c6 84 24 0d 08 00 00 0d mov     byte ptr [rsp+80Dh], 0Dh
0x180057bbb c6 84 24 0e 08 00 00 0a mov     byte ptr [rsp+80Eh], 0Ah
0x180029440 c6 84 24 0f 08 00 00 20 mov     byte ptr [rsp+80Fh], 20h ; ' '
0x180027cda c6 84 24 10 08 00 00 20 mov     byte ptr [rsp+810h], 20h ; ' '
0x1800032c8 c6 84 24 11 08 00 00 20 mov     byte ptr [rsp+811h], 20h ; ' '
0x1800497c7 c6 84 24 12 08 00 00 20 mov     byte ptr [rsp+812h], 20h ; ' '
0x18001d2c3 c6 84 24 13 08 00 00 20 mov     byte ptr [rsp+813h], 20h ; ' '
0x180007ea0 c6 84 24 14 08 00 00 20 mov     byte ptr [rsp+814h], 20h ; ' '
0x18000337f c6 84 24 15 08 00 00 20 mov     byte ptr [rsp+815h], 20h ; ' '
0x18005f11d c6 84 24 16 08 00 00 20 mov     byte ptr [rsp+816h], 20h ; ' '
0x18001afd5 c6 84 24 17 08 00 00 20 mov     byte ptr [rsp+817h], 20h ; ' '
0x18005ee22 c6 84 24 18 08 00 00 20 mov     byte ptr [rsp+818h], 20h ; ' '
0x18004955b c6 84 24 19 08 00 00 20 mov     byte ptr [rsp+819h], 20h ; ' '
0x18002715c c6 84 24 1a 08 00 00 20 mov     byte ptr [rsp+81Ah], 20h ; ' '
0x180002ab2 c6 84 24 1b 08 00 00 20 mov     byte ptr [rsp+81Bh], 20h ; ' '
0x18000460d c6 84 24 1c 08 00 00 20 mov     byte ptr [rsp+81Ch], 20h ; ' '
0x180017c21 c6 84 24 1d 08 00 00 20 mov     byte ptr [rsp+81Dh], 20h ; ' '
0x180052f95 c6 84 24 1e 08 00 00 20 mov     byte ptr [rsp+81Eh], 20h ; ' '
0x18000bfe6 c6 84 24 1f 08 00 00 20 mov     byte ptr [rsp+81Fh], 20h ; ' '
0x180023ecc c6 84 24 20 08 00 00 20 mov     byte ptr [rsp+820h], 20h ; ' '
0x18002fcc3 c6 84 24 21 08 00 00 20 mov     byte ptr [rsp+821h], 20h ; ' '
0x18004284e c6 84 24 22 08 00 00 20 mov     byte ptr [rsp+822h], 20h ; ' '
0x18005571f c6 84 24 23 08 00 00 20 mov     byte ptr [rsp+823h], 20h ; ' '
0x1800033f4 c6 84 24 24 08 00 00 20 mov     byte ptr [rsp+824h], 20h ; ' '
0x180030000 c6 84 24 25 08 00 00 20 mov     byte ptr [rsp+825h], 20h ; ' '
0x180017aab c6 84 24 26 08 00 00 20 mov     byte ptr [rsp+826h], 20h ; ' '
0x180001b6d c6 84 24 27 08 00 00 20 mov     byte ptr [rsp+827h], 20h ; ' '
0x18003aa13 c6 84 24 28 08 00 00 20 mov     byte ptr [rsp+828h], 20h ; ' '
0x18003bca6 c6 84 24 29 08 00 00 20 mov     byte ptr [rsp+829h], 20h ; ' '
0x18005a99c c6 84 24 2a 08 00 00 20 mov     byte ptr [rsp+82Ah], 20h ; ' '
0x180001c31 c6 84 24 2b 08 00 00 20 mov     byte ptr [rsp+82Bh], 20h ; ' '
0x18001e9a1 c6 84 24 2c 08 00 00 20 mov     byte ptr [rsp+82Ch], 20h ; ' '
0x18000c3ad c6 84 24 2d 08 00 00 20 mov     byte ptr [rsp+82Dh], 20h ; ' '
0x18005998d c6 84 24 2e 08 00 00 20 mov     byte ptr [rsp+82Eh], 20h ; ' '
0x18000d75f c6 84 24 2f 08 00 00 20 mov     byte ptr [rsp+82Fh], 20h ; ' '
0x18002fa72 c6 84 24 30 08 00 00 20 mov     byte ptr [rsp+830h], 20h ; ' '
0x180057736 c6 84 24 31 08 00 00 20 mov     byte ptr [rsp+831h], 20h ; ' '
0x180012d3a c6 84 24 32 08 00 00 20 mov     byte ptr [rsp+832h], 20h ; ' '
0x18000f4a0 c6 84 24 33 08 00 00 20 mov     byte ptr [rsp+833h], 20h ; ' '
0x18001455c c6 84 24 34 08 00 00 20 mov     byte ptr [rsp+834h], 20h ; ' '
0x18003952f c6 84 24 35 08 00 00 20 mov     byte ptr [rsp+835h], 20h ; ' '
0x18002820b c6 84 24 36 08 00 00 20 mov     byte ptr [rsp+836h], 20h ; ' '
0x18003f9d6 c6 84 24 37 08 00 00 20 mov     byte ptr [rsp+837h], 20h ; ' '
0x180017524 c6 84 24 38 08 00 00 20 mov     byte ptr [rsp+838h], 20h ; ' '
0x1800127f4 c6 84 24 39 08 00 00 20 mov     byte ptr [rsp+839h], 20h ; ' '
0x18005d2b2 c6 84 24 3a 08 00 00 20 mov     byte ptr [rsp+83Ah], 20h ; ' '
0x180031ef8 c6 84 24 3b 08 00 00 20 mov     byte ptr [rsp+83Bh], 20h ; ' '
0x18004da8a c6 84 24 3c 08 00 00 20 mov     byte ptr [rsp+83Ch], 20h ; ' '
0x180055afe c6 84 24 3d 08 00 00 20 mov     byte ptr [rsp+83Dh], 20h ; ' '
0x180064058 c6 84 24 3e 08 00 00 20 mov     byte ptr [rsp+83Eh], 20h ; ' '
0x180031bc7 c6 84 24 3f 08 00 00 20 mov     byte ptr [rsp+83Fh], 20h ; ' '
0x1800048fe c6 84 24 40 08 00 00 20 mov     byte ptr [rsp+840h], 20h ; ' '
0x18005e513 c6 84 24 41 08 00 00 20 mov     byte ptr [rsp+841h], 20h ; ' '
0x18006118a c6 84 24 42 08 00 00 20 mov     byte ptr [rsp+842h], 20h ; ' '
0x1800625fb c6 84 24 43 08 00 00 20 mov     [rsp+48h+arg_7F3], 20h ; ' '
0x180048f5a c6 84 24 44 08 00 00 20 mov     [rsp+48h+arg_7EC], 20h ; ' '
0x180033096 c6 84 24 45 08 00 00 20 mov     [rsp+48h+arg_7ED], 20h ; ' '
0x18005e520 c6 84 24 46 08 00 00 0d mov     [rsp+48h+arg_7EE], 0Dh
0x18000b6f6 c6 84 24 47 08 00 00 0a mov     [rsp+48h+arg_7EF], 0Ah
0x18005d9e7 c6 84 24 48 08 00 00 00 mov     [rsp+48h+arg_7F0], 0
0x18004621c 48 c7 84 24 70 08 00 00 00 00 00 00 mov     [rsp+48h+arg_818], 0
0x18006240c 48 c7 84 24 78 08 00 00 00 00 00 00 mov     [rsp+48h+arg_820], 0
0x180012def 48 8d 4c 24 68         lea     rcx, [rsp+48h+arg_18]
0x18003fdda 41 57                  push    r15
0x180065cda 41 56                  push    r14
0x18004f52f 4d 33 f6               xor     r14, r14
0x180023209 41 bf 4c 77 26 07      mov     r15d, 726774Ch; kernel32.dll!LoadLibraryA
0x180010ac2 e8 5d 42 00 00         call    API_call_by_ror13AddHash32AddDll_180014D24; LoadLibraryA (hash 726774c) with rcx = ws2_32.dll
0x18000ce32 48 83 c4 20            add     rsp, 20h
0x1800481a2 41 5e                  pop     r14
0x180009745 41 5f                  pop     r15
0x18005a0ce 48 89 84 24 70 08 00 00 mov     [rsp+870h], rax; ws2_32.dll
0x18002a8a5 48 8d 4c 24 78         lea     rcx, [rsp+78h]
0x1800277ef 41 57                  push    r15
0x1800345d9 41 56                  push    r14
0x18004bb06 4d 33 f6               xor     r14, r14
0x1800345ad 41 bf 4c 77 26 07      mov     r15d, 726774Ch; kernel32.dll!LoadLibraryA
0x18006328f e8 90 1a fb ff         call    API_call_by_ror13AddHash32AddDll_180014D24; LoadLibraryA (hash 726774c) with rcx = user32.dll
0x18004ed08 48 83 c4 20            add     rsp, 20h
0x1800371c0 41 5e                  pop     r14
0x18004bf0f 41 5f                  pop     r15
0x18003893e 48 89 84 24 78 08 00 00 mov     [rsp+878h], rax; user32.dll
0x1800584cb 48 83 bc 24 70 08 00 00 00 cmp     qword ptr [rsp+870h], 0
0x18002cb39 0f 84 05 b6 02 00      jz      loc_180058144
0x180015d8d 48 83 bc 24 78 08 00 00 00 cmp     qword ptr [rsp+878h], 0
0x180047db1 0f 85 9c ef fb ff      jnz     loc_180006D53
0x180058144 b8 ff ff ff ff         mov     eax, 0FFFFFFFFh
0x18000cd5d 48 81 c4 08 0d 00 00   add     rsp, 0D08h
0x180033b66 c3                     retn
